
pengine:     file format elf64-x86-64


Disassembly of section .init:

00000000004013d8 <_init>:
  4013d8:	48 83 ec 08          	sub    $0x8,%rsp
  4013dc:	48 8b 05 15 bc 20 00 	mov    0x20bc15(%rip),%rax        # 60cff8 <_DYNAMIC+0x218>
  4013e3:	48 85 c0             	test   %rax,%rax
  4013e6:	74 02                	je     4013ea <_init+0x12>
  4013e8:	ff d0                	callq  *%rax
  4013ea:	48 83 c4 08          	add    $0x8,%rsp
  4013ee:	c3                   	retq   

Disassembly of section .plt:

00000000004013f0 <printf@plt-0x10>:
  4013f0:	ff 35 12 bc 20 00    	pushq  0x20bc12(%rip)        # 60d008 <_GLOBAL_OFFSET_TABLE_+0x8>
  4013f6:	ff 25 14 bc 20 00    	jmpq   *0x20bc14(%rip)        # 60d010 <_GLOBAL_OFFSET_TABLE_+0x10>
  4013fc:	0f 1f 40 00          	nopl   0x0(%rax)

0000000000401400 <printf@plt>:
  401400:	ff 25 12 bc 20 00    	jmpq   *0x20bc12(%rip)        # 60d018 <_GLOBAL_OFFSET_TABLE_+0x18>
  401406:	68 00 00 00 00       	pushq  $0x0
  40140b:	e9 e0 ff ff ff       	jmpq   4013f0 <_init+0x18>

0000000000401410 <_ZNSt7__cxx1112basic_stringIcSt11char_traitsIcESaIcEE6insertEmPKc@plt>:
  401410:	ff 25 0a bc 20 00    	jmpq   *0x20bc0a(%rip)        # 60d020 <_GLOBAL_OFFSET_TABLE_+0x20>
  401416:	68 01 00 00 00       	pushq  $0x1
  40141b:	e9 d0 ff ff ff       	jmpq   4013f0 <_init+0x18>

0000000000401420 <_ZSt17__throw_bad_allocv@plt>:
  401420:	ff 25 02 bc 20 00    	jmpq   *0x20bc02(%rip)        # 60d028 <_GLOBAL_OFFSET_TABLE_+0x28>
  401426:	68 02 00 00 00       	pushq  $0x2
  40142b:	e9 c0 ff ff ff       	jmpq   4013f0 <_init+0x18>

0000000000401430 <__cxa_begin_catch@plt>:
  401430:	ff 25 fa bb 20 00    	jmpq   *0x20bbfa(%rip)        # 60d030 <_GLOBAL_OFFSET_TABLE_+0x30>
  401436:	68 03 00 00 00       	pushq  $0x3
  40143b:	e9 b0 ff ff ff       	jmpq   4013f0 <_init+0x18>

0000000000401440 <vkCreateCommandPool@plt>:
  401440:	ff 25 f2 bb 20 00    	jmpq   *0x20bbf2(%rip)        # 60d038 <_GLOBAL_OFFSET_TABLE_+0x38>
  401446:	68 04 00 00 00       	pushq  $0x4
  40144b:	e9 a0 ff ff ff       	jmpq   4013f0 <_init+0x18>

0000000000401450 <_ZNKSt3_V214error_category10equivalentEiRKSt15error_condition@plt>:
  401450:	ff 25 ea bb 20 00    	jmpq   *0x20bbea(%rip)        # 60d040 <_GLOBAL_OFFSET_TABLE_+0x40>
  401456:	68 05 00 00 00       	pushq  $0x5
  40145b:	e9 90 ff ff ff       	jmpq   4013f0 <_init+0x18>

0000000000401460 <vkCreateGraphicsPipelines@plt>:
  401460:	ff 25 e2 bb 20 00    	jmpq   *0x20bbe2(%rip)        # 60d048 <_GLOBAL_OFFSET_TABLE_+0x48>
  401466:	68 06 00 00 00       	pushq  $0x6
  40146b:	e9 80 ff ff ff       	jmpq   4013f0 <_init+0x18>

0000000000401470 <__cxa_allocate_exception@plt>:
  401470:	ff 25 da bb 20 00    	jmpq   *0x20bbda(%rip)        # 60d050 <_GLOBAL_OFFSET_TABLE_+0x50>
  401476:	68 07 00 00 00       	pushq  $0x7
  40147b:	e9 70 ff ff ff       	jmpq   4013f0 <_init+0x18>

0000000000401480 <_ZSt20__throw_length_errorPKc@plt>:
  401480:	ff 25 d2 bb 20 00    	jmpq   *0x20bbd2(%rip)        # 60d058 <_GLOBAL_OFFSET_TABLE_+0x58>
  401486:	68 08 00 00 00       	pushq  $0x8
  40148b:	e9 60 ff ff ff       	jmpq   4013f0 <_init+0x18>

0000000000401490 <vkEnumeratePhysicalDevices@plt>:
  401490:	ff 25 ca bb 20 00    	jmpq   *0x20bbca(%rip)        # 60d060 <_GLOBAL_OFFSET_TABLE_+0x60>
  401496:	68 09 00 00 00       	pushq  $0x9
  40149b:	e9 50 ff ff ff       	jmpq   4013f0 <_init+0x18>

00000000004014a0 <_ZNSt7__cxx1112basic_stringIcSt11char_traitsIcESaIcEEC1EOS4_@plt>:
  4014a0:	ff 25 c2 bb 20 00    	jmpq   *0x20bbc2(%rip)        # 60d068 <_GLOBAL_OFFSET_TABLE_+0x68>
  4014a6:	68 0a 00 00 00       	pushq  $0xa
  4014ab:	e9 40 ff ff ff       	jmpq   4013f0 <_init+0x18>

00000000004014b0 <_ZNSt7__cxx1112basic_stringIcSt11char_traitsIcESaIcEED1Ev@plt>:
  4014b0:	ff 25 ba bb 20 00    	jmpq   *0x20bbba(%rip)        # 60d070 <_GLOBAL_OFFSET_TABLE_+0x70>
  4014b6:	68 0b 00 00 00       	pushq  $0xb
  4014bb:	e9 30 ff ff ff       	jmpq   4013f0 <_init+0x18>

00000000004014c0 <__cxa_guard_release@plt>:
  4014c0:	ff 25 b2 bb 20 00    	jmpq   *0x20bbb2(%rip)        # 60d078 <_GLOBAL_OFFSET_TABLE_+0x78>
  4014c6:	68 0c 00 00 00       	pushq  $0xc
  4014cb:	e9 20 ff ff ff       	jmpq   4013f0 <_init+0x18>

00000000004014d0 <__assert_fail@plt>:
  4014d0:	ff 25 aa bb 20 00    	jmpq   *0x20bbaa(%rip)        # 60d080 <_GLOBAL_OFFSET_TABLE_+0x80>
  4014d6:	68 0d 00 00 00       	pushq  $0xd
  4014db:	e9 10 ff ff ff       	jmpq   4013f0 <_init+0x18>

00000000004014e0 <__cxa_free_exception@plt>:
  4014e0:	ff 25 a2 bb 20 00    	jmpq   *0x20bba2(%rip)        # 60d088 <_GLOBAL_OFFSET_TABLE_+0x88>
  4014e6:	68 0e 00 00 00       	pushq  $0xe
  4014eb:	e9 00 ff ff ff       	jmpq   4013f0 <_init+0x18>

00000000004014f0 <_ZNKSt3_V214error_category23default_error_conditionEi@plt>:
  4014f0:	ff 25 9a bb 20 00    	jmpq   *0x20bb9a(%rip)        # 60d090 <_GLOBAL_OFFSET_TABLE_+0x90>
  4014f6:	68 0f 00 00 00       	pushq  $0xf
  4014fb:	e9 f0 fe ff ff       	jmpq   4013f0 <_init+0x18>

0000000000401500 <vkGetPhysicalDeviceQueueFamilyProperties@plt>:
  401500:	ff 25 92 bb 20 00    	jmpq   *0x20bb92(%rip)        # 60d098 <_GLOBAL_OFFSET_TABLE_+0x98>
  401506:	68 10 00 00 00       	pushq  $0x10
  40150b:	e9 e0 fe ff ff       	jmpq   4013f0 <_init+0x18>

0000000000401510 <vkCreateShaderModule@plt>:
  401510:	ff 25 8a bb 20 00    	jmpq   *0x20bb8a(%rip)        # 60d0a0 <_GLOBAL_OFFSET_TABLE_+0xa0>
  401516:	68 11 00 00 00       	pushq  $0x11
  40151b:	e9 d0 fe ff ff       	jmpq   4013f0 <_init+0x18>

0000000000401520 <__cxa_atexit@plt>:
  401520:	ff 25 82 bb 20 00    	jmpq   *0x20bb82(%rip)        # 60d0a8 <_GLOBAL_OFFSET_TABLE_+0xa8>
  401526:	68 12 00 00 00       	pushq  $0x12
  40152b:	e9 c0 fe ff ff       	jmpq   4013f0 <_init+0x18>

0000000000401530 <_ZdlPv@plt>:
  401530:	ff 25 7a bb 20 00    	jmpq   *0x20bb7a(%rip)        # 60d0b0 <_GLOBAL_OFFSET_TABLE_+0xb0>
  401536:	68 13 00 00 00       	pushq  $0x13
  40153b:	e9 b0 fe ff ff       	jmpq   4013f0 <_init+0x18>

0000000000401540 <vkGetInstanceProcAddr@plt>:
  401540:	ff 25 72 bb 20 00    	jmpq   *0x20bb72(%rip)        # 60d0b8 <_GLOBAL_OFFSET_TABLE_+0xb8>
  401546:	68 14 00 00 00       	pushq  $0x14
  40154b:	e9 a0 fe ff ff       	jmpq   4013f0 <_init+0x18>

0000000000401550 <_Znwm@plt>:
  401550:	ff 25 6a bb 20 00    	jmpq   *0x20bb6a(%rip)        # 60d0c0 <_GLOBAL_OFFSET_TABLE_+0xc0>
  401556:	68 15 00 00 00       	pushq  $0x15
  40155b:	e9 90 fe ff ff       	jmpq   4013f0 <_init+0x18>

0000000000401560 <_ZdlPvm@plt>:
  401560:	ff 25 62 bb 20 00    	jmpq   *0x20bb62(%rip)        # 60d0c8 <_GLOBAL_OFFSET_TABLE_+0xc8>
  401566:	68 16 00 00 00       	pushq  $0x16
  40156b:	e9 80 fe ff ff       	jmpq   4013f0 <_init+0x18>

0000000000401570 <_ZNSaIcED1Ev@plt>:
  401570:	ff 25 5a bb 20 00    	jmpq   *0x20bb5a(%rip)        # 60d0d0 <_GLOBAL_OFFSET_TABLE_+0xd0>
  401576:	68 17 00 00 00       	pushq  $0x17
  40157b:	e9 70 fe ff ff       	jmpq   4013f0 <_init+0x18>

0000000000401580 <_ZNSt12system_errorD1Ev@plt>:
  401580:	ff 25 52 bb 20 00    	jmpq   *0x20bb52(%rip)        # 60d0d8 <_GLOBAL_OFFSET_TABLE_+0xd8>
  401586:	68 18 00 00 00       	pushq  $0x18
  40158b:	e9 60 fe ff ff       	jmpq   4013f0 <_init+0x18>

0000000000401590 <vkCreateInstance@plt>:
  401590:	ff 25 4a bb 20 00    	jmpq   *0x20bb4a(%rip)        # 60d0e0 <_GLOBAL_OFFSET_TABLE_+0xe0>
  401596:	68 19 00 00 00       	pushq  $0x19
  40159b:	e9 50 fe ff ff       	jmpq   4013f0 <_init+0x18>

00000000004015a0 <_ZNSt13runtime_errorC2ERKNSt7__cxx1112basic_stringIcSt11char_traitsIcESaIcEEE@plt>:
  4015a0:	ff 25 42 bb 20 00    	jmpq   *0x20bb42(%rip)        # 60d0e8 <_GLOBAL_OFFSET_TABLE_+0xe8>
  4015a6:	68 1a 00 00 00       	pushq  $0x1a
  4015ab:	e9 40 fe ff ff       	jmpq   4013f0 <_init+0x18>

00000000004015b0 <vkGetDeviceQueue@plt>:
  4015b0:	ff 25 3a bb 20 00    	jmpq   *0x20bb3a(%rip)        # 60d0f0 <_GLOBAL_OFFSET_TABLE_+0xf0>
  4015b6:	68 1b 00 00 00       	pushq  $0x1b
  4015bb:	e9 30 fe ff ff       	jmpq   4013f0 <_init+0x18>

00000000004015c0 <_ZNSt7__cxx1112basic_stringIcSt11char_traitsIcESaIcEEC1EPKcRKS3_@plt>:
  4015c0:	ff 25 32 bb 20 00    	jmpq   *0x20bb32(%rip)        # 60d0f8 <_GLOBAL_OFFSET_TABLE_+0xf8>
  4015c6:	68 1c 00 00 00       	pushq  $0x1c
  4015cb:	e9 20 fe ff ff       	jmpq   4013f0 <_init+0x18>

00000000004015d0 <__cxa_rethrow@plt>:
  4015d0:	ff 25 2a bb 20 00    	jmpq   *0x20bb2a(%rip)        # 60d100 <_GLOBAL_OFFSET_TABLE_+0x100>
  4015d6:	68 1d 00 00 00       	pushq  $0x1d
  4015db:	e9 10 fe ff ff       	jmpq   4013f0 <_init+0x18>

00000000004015e0 <vkCreateDevice@plt>:
  4015e0:	ff 25 22 bb 20 00    	jmpq   *0x20bb22(%rip)        # 60d108 <_GLOBAL_OFFSET_TABLE_+0x108>
  4015e6:	68 1e 00 00 00       	pushq  $0x1e
  4015eb:	e9 00 fe ff ff       	jmpq   4013f0 <_init+0x18>

00000000004015f0 <puts@plt>:
  4015f0:	ff 25 1a bb 20 00    	jmpq   *0x20bb1a(%rip)        # 60d110 <_GLOBAL_OFFSET_TABLE_+0x110>
  4015f6:	68 1f 00 00 00       	pushq  $0x1f
  4015fb:	e9 f0 fd ff ff       	jmpq   4013f0 <_init+0x18>

0000000000401600 <memmove@plt>:
  401600:	ff 25 12 bb 20 00    	jmpq   *0x20bb12(%rip)        # 60d118 <_GLOBAL_OFFSET_TABLE_+0x118>
  401606:	68 20 00 00 00       	pushq  $0x20
  40160b:	e9 e0 fd ff ff       	jmpq   4013f0 <_init+0x18>

0000000000401610 <__cxa_end_catch@plt>:
  401610:	ff 25 0a bb 20 00    	jmpq   *0x20bb0a(%rip)        # 60d120 <_GLOBAL_OFFSET_TABLE_+0x120>
  401616:	68 21 00 00 00       	pushq  $0x21
  40161b:	e9 d0 fd ff ff       	jmpq   4013f0 <_init+0x18>

0000000000401620 <__gxx_personality_v0@plt>:
  401620:	ff 25 02 bb 20 00    	jmpq   *0x20bb02(%rip)        # 60d128 <_GLOBAL_OFFSET_TABLE_+0x128>
  401626:	68 22 00 00 00       	pushq  $0x22
  40162b:	e9 c0 fd ff ff       	jmpq   4013f0 <_init+0x18>

0000000000401630 <__cxa_throw@plt>:
  401630:	ff 25 fa ba 20 00    	jmpq   *0x20bafa(%rip)        # 60d130 <_GLOBAL_OFFSET_TABLE_+0x130>
  401636:	68 23 00 00 00       	pushq  $0x23
  40163b:	e9 b0 fd ff ff       	jmpq   4013f0 <_init+0x18>

0000000000401640 <_ZNSt3_V214error_categoryD2Ev@plt>:
  401640:	ff 25 f2 ba 20 00    	jmpq   *0x20baf2(%rip)        # 60d138 <_GLOBAL_OFFSET_TABLE_+0x138>
  401646:	68 24 00 00 00       	pushq  $0x24
  40164b:	e9 a0 fd ff ff       	jmpq   4013f0 <_init+0x18>

0000000000401650 <_Unwind_Resume@plt>:
  401650:	ff 25 ea ba 20 00    	jmpq   *0x20baea(%rip)        # 60d140 <_GLOBAL_OFFSET_TABLE_+0x140>
  401656:	68 25 00 00 00       	pushq  $0x25
  40165b:	e9 90 fd ff ff       	jmpq   4013f0 <_init+0x18>

0000000000401660 <_ZNSaIcEC1Ev@plt>:
  401660:	ff 25 e2 ba 20 00    	jmpq   *0x20bae2(%rip)        # 60d148 <_GLOBAL_OFFSET_TABLE_+0x148>
  401666:	68 26 00 00 00       	pushq  $0x26
  40166b:	e9 80 fd ff ff       	jmpq   4013f0 <_init+0x18>

0000000000401670 <_ZNKSt3_V214error_category10_M_messageB5cxx11Ei@plt>:
  401670:	ff 25 da ba 20 00    	jmpq   *0x20bada(%rip)        # 60d150 <_GLOBAL_OFFSET_TABLE_+0x150>
  401676:	68 27 00 00 00       	pushq  $0x27
  40167b:	e9 70 fd ff ff       	jmpq   4013f0 <_init+0x18>

0000000000401680 <_ZNKSt3_V214error_category10equivalentERKSt10error_codei@plt>:
  401680:	ff 25 d2 ba 20 00    	jmpq   *0x20bad2(%rip)        # 60d158 <_GLOBAL_OFFSET_TABLE_+0x158>
  401686:	68 28 00 00 00       	pushq  $0x28
  40168b:	e9 60 fd ff ff       	jmpq   4013f0 <_init+0x18>

0000000000401690 <__cxa_guard_acquire@plt>:
  401690:	ff 25 ca ba 20 00    	jmpq   *0x20baca(%rip)        # 60d160 <_GLOBAL_OFFSET_TABLE_+0x160>
  401696:	68 29 00 00 00       	pushq  $0x29
  40169b:	e9 50 fd ff ff       	jmpq   4013f0 <_init+0x18>

00000000004016a0 <fwrite@plt>:
  4016a0:	ff 25 c2 ba 20 00    	jmpq   *0x20bac2(%rip)        # 60d168 <_GLOBAL_OFFSET_TABLE_+0x168>
  4016a6:	68 2a 00 00 00       	pushq  $0x2a
  4016ab:	e9 40 fd ff ff       	jmpq   4013f0 <_init+0x18>

Disassembly of section .text:

00000000004016b0 <_start>:
  4016b0:	31 ed                	xor    %ebp,%ebp
  4016b2:	49 89 d1             	mov    %rdx,%r9
  4016b5:	5e                   	pop    %rsi
  4016b6:	48 89 e2             	mov    %rsp,%rdx
  4016b9:	48 83 e4 f0          	and    $0xfffffffffffffff0,%rsp
  4016bd:	50                   	push   %rax
  4016be:	54                   	push   %rsp
  4016bf:	49 c7 c0 00 80 40 00 	mov    $0x408000,%r8
  4016c6:	48 c7 c1 90 7f 40 00 	mov    $0x407f90,%rcx
  4016cd:	48 c7 c7 14 24 40 00 	mov    $0x402414,%rdi
  4016d4:	ff 15 16 b9 20 00    	callq  *0x20b916(%rip)        # 60cff0 <_DYNAMIC+0x210>
  4016da:	f4                   	hlt    
  4016db:	0f 1f 44 00 00       	nopl   0x0(%rax,%rax,1)

00000000004016e0 <deregister_tm_clones>:
  4016e0:	b8 9f d4 60 00       	mov    $0x60d49f,%eax
  4016e5:	55                   	push   %rbp
  4016e6:	48 2d 98 d4 60 00    	sub    $0x60d498,%rax
  4016ec:	48 83 f8 0e          	cmp    $0xe,%rax
  4016f0:	48 89 e5             	mov    %rsp,%rbp
  4016f3:	76 1b                	jbe    401710 <deregister_tm_clones+0x30>
  4016f5:	b8 00 00 00 00       	mov    $0x0,%eax
  4016fa:	48 85 c0             	test   %rax,%rax
  4016fd:	74 11                	je     401710 <deregister_tm_clones+0x30>
  4016ff:	5d                   	pop    %rbp
  401700:	bf 98 d4 60 00       	mov    $0x60d498,%edi
  401705:	ff e0                	jmpq   *%rax
  401707:	66 0f 1f 84 00 00 00 	nopw   0x0(%rax,%rax,1)
  40170e:	00 00 
  401710:	5d                   	pop    %rbp
  401711:	c3                   	retq   
  401712:	0f 1f 40 00          	nopl   0x0(%rax)
  401716:	66 2e 0f 1f 84 00 00 	nopw   %cs:0x0(%rax,%rax,1)
  40171d:	00 00 00 

0000000000401720 <register_tm_clones>:
  401720:	be 98 d4 60 00       	mov    $0x60d498,%esi
  401725:	55                   	push   %rbp
  401726:	48 81 ee 98 d4 60 00 	sub    $0x60d498,%rsi
  40172d:	48 c1 fe 03          	sar    $0x3,%rsi
  401731:	48 89 e5             	mov    %rsp,%rbp
  401734:	48 89 f0             	mov    %rsi,%rax
  401737:	48 c1 e8 3f          	shr    $0x3f,%rax
  40173b:	48 01 c6             	add    %rax,%rsi
  40173e:	48 d1 fe             	sar    %rsi
  401741:	74 15                	je     401758 <register_tm_clones+0x38>
  401743:	b8 00 00 00 00       	mov    $0x0,%eax
  401748:	48 85 c0             	test   %rax,%rax
  40174b:	74 0b                	je     401758 <register_tm_clones+0x38>
  40174d:	5d                   	pop    %rbp
  40174e:	bf 98 d4 60 00       	mov    $0x60d498,%edi
  401753:	ff e0                	jmpq   *%rax
  401755:	0f 1f 00             	nopl   (%rax)
  401758:	5d                   	pop    %rbp
  401759:	c3                   	retq   
  40175a:	66 0f 1f 44 00 00    	nopw   0x0(%rax,%rax,1)

0000000000401760 <__do_global_dtors_aux>:
  401760:	80 3d 09 be 20 00 00 	cmpb   $0x0,0x20be09(%rip)        # 60d570 <completed.6917>
  401767:	75 11                	jne    40177a <__do_global_dtors_aux+0x1a>
  401769:	55                   	push   %rbp
  40176a:	48 89 e5             	mov    %rsp,%rbp
  40176d:	e8 6e ff ff ff       	callq  4016e0 <deregister_tm_clones>
  401772:	5d                   	pop    %rbp
  401773:	c6 05 f6 bd 20 00 01 	movb   $0x1,0x20bdf6(%rip)        # 60d570 <completed.6917>
  40177a:	f3 c3                	repz retq 
  40177c:	0f 1f 40 00          	nopl   0x0(%rax)

0000000000401780 <frame_dummy>:
  401780:	bf d8 cd 60 00       	mov    $0x60cdd8,%edi
  401785:	48 83 3f 00          	cmpq   $0x0,(%rdi)
  401789:	75 05                	jne    401790 <frame_dummy+0x10>
  40178b:	eb 93                	jmp    401720 <register_tm_clones>
  40178d:	0f 1f 00             	nopl   (%rax)
  401790:	b8 00 00 00 00       	mov    $0x0,%eax
  401795:	48 85 c0             	test   %rax,%rax
  401798:	74 f1                	je     40178b <frame_dummy+0xb>
  40179a:	55                   	push   %rbp
  40179b:	48 89 e5             	mov    %rsp,%rbp
  40179e:	ff d0                	callq  *%rax
  4017a0:	5d                   	pop    %rbp
  4017a1:	e9 7a ff ff ff       	jmpq   401720 <register_tm_clones>

00000000004017a6 <_ZL13debugCallbackj26VkDebugReportObjectTypeEXTmmiPKcS1_Pv>:
  4017a6:	55                   	push   %rbp
  4017a7:	48 89 e5             	mov    %rsp,%rbp
  4017aa:	48 83 ec 30          	sub    $0x30,%rsp
  4017ae:	89 7d fc             	mov    %edi,-0x4(%rbp)
  4017b1:	89 75 f8             	mov    %esi,-0x8(%rbp)
  4017b4:	48 89 55 f0          	mov    %rdx,-0x10(%rbp)
  4017b8:	48 89 4d e8          	mov    %rcx,-0x18(%rbp)
  4017bc:	44 89 45 e4          	mov    %r8d,-0x1c(%rbp)
  4017c0:	4c 89 4d d8          	mov    %r9,-0x28(%rbp)
  4017c4:	48 8b 7d 10          	mov    0x10(%rbp),%rdi
  4017c8:	e8 23 fe ff ff       	callq  4015f0 <puts@plt>
  4017cd:	b8 01 00 00 00       	mov    $0x1,%eax
  4017d2:	c9                   	leaveq 
  4017d3:	c3                   	retq   

00000000004017d4 <_Z11ModuleSizesv>:
  4017d4:	55                   	push   %rbp
  4017d5:	48 89 e5             	mov    %rsp,%rbp
  4017d8:	53                   	push   %rbx
  4017d9:	48 83 ec 38          	sub    $0x38,%rsp
  4017dd:	48 89 7d c8          	mov    %rdi,-0x38(%rbp)
  4017e1:	48 8d 45 d0          	lea    -0x30(%rbp),%rax
  4017e5:	48 89 c7             	mov    %rax,%rdi
  4017e8:	e8 e1 24 00 00       	callq  403cce <_ZNSt6vectorIjSaIjEEC1Ev>
  4017ed:	b8 38 02 00 00       	mov    $0x238,%eax
  4017f2:	89 45 e8             	mov    %eax,-0x18(%rbp)
  4017f5:	48 8d 55 e8          	lea    -0x18(%rbp),%rdx
  4017f9:	48 8d 45 d0          	lea    -0x30(%rbp),%rax
  4017fd:	48 89 d6             	mov    %rdx,%rsi
  401800:	48 89 c7             	mov    %rax,%rdi
  401803:	e8 34 25 00 00       	callq  403d3c <_ZNSt6vectorIjSaIjEE9push_backEOj>
  401808:	b8 b4 00 00 00       	mov    $0xb4,%eax
  40180d:	89 45 ec             	mov    %eax,-0x14(%rbp)
  401810:	48 8d 55 ec          	lea    -0x14(%rbp),%rdx
  401814:	48 8d 45 d0          	lea    -0x30(%rbp),%rax
  401818:	48 89 d6             	mov    %rdx,%rsi
  40181b:	48 89 c7             	mov    %rax,%rdi
  40181e:	e8 19 25 00 00       	callq  403d3c <_ZNSt6vectorIjSaIjEE9push_backEOj>
  401823:	48 8d 45 d0          	lea    -0x30(%rbp),%rax
  401827:	48 89 c7             	mov    %rax,%rdi
  40182a:	e8 f5 20 00 00       	callq  403924 <_ZSt4moveIRSt6vectorIjSaIjEEEONSt16remove_referenceIT_E4typeEOS5_>
  40182f:	48 89 c2             	mov    %rax,%rdx
  401832:	48 8b 45 c8          	mov    -0x38(%rbp),%rax
  401836:	48 89 d6             	mov    %rdx,%rsi
  401839:	48 89 c7             	mov    %rax,%rdi
  40183c:	e8 2d 25 00 00       	callq  403d6e <_ZNSt6vectorIjSaIjEEC1EOS1_>
  401841:	48 8d 45 d0          	lea    -0x30(%rbp),%rax
  401845:	48 89 c7             	mov    %rax,%rdi
  401848:	e8 9d 24 00 00       	callq  403cea <_ZNSt6vectorIjSaIjEED1Ev>
  40184d:	eb 1a                	jmp    401869 <_Z11ModuleSizesv+0x95>
  40184f:	48 89 c3             	mov    %rax,%rbx
  401852:	48 8d 45 d0          	lea    -0x30(%rbp),%rax
  401856:	48 89 c7             	mov    %rax,%rdi
  401859:	e8 8c 24 00 00       	callq  403cea <_ZNSt6vectorIjSaIjEED1Ev>
  40185e:	48 89 d8             	mov    %rbx,%rax
  401861:	48 89 c7             	mov    %rax,%rdi
  401864:	e8 e7 fd ff ff       	callq  401650 <_Unwind_Resume@plt>
  401869:	48 8b 45 c8          	mov    -0x38(%rbp),%rax
  40186d:	48 83 c4 38          	add    $0x38,%rsp
  401871:	5b                   	pop    %rbx
  401872:	5d                   	pop    %rbp
  401873:	c3                   	retq   

0000000000401874 <_Z11ModulesDatav>:
  401874:	55                   	push   %rbp
  401875:	48 89 e5             	mov    %rsp,%rbp
  401878:	53                   	push   %rbx
  401879:	48 83 ec 38          	sub    $0x38,%rsp
  40187d:	48 89 7d c8          	mov    %rdi,-0x38(%rbp)
  401881:	48 8d 45 d0          	lea    -0x30(%rbp),%rax
  401885:	48 89 c7             	mov    %rax,%rdi
  401888:	e8 13 25 00 00       	callq  403da0 <_ZNSt6vectorIPjSaIS0_EEC1Ev>
  40188d:	48 8d 45 d0          	lea    -0x30(%rbp),%rax
  401891:	be a8 d1 60 00       	mov    $0x60d1a8,%esi
  401896:	48 89 c7             	mov    %rax,%rdi
  401899:	e8 62 25 00 00       	callq  403e00 <_ZNSt6vectorIPjSaIS0_EE9push_backERKS0_>
  40189e:	48 8d 45 d0          	lea    -0x30(%rbp),%rax
  4018a2:	be e0 d3 60 00       	mov    $0x60d3e0,%esi
  4018a7:	48 89 c7             	mov    %rax,%rdi
  4018aa:	e8 51 25 00 00       	callq  403e00 <_ZNSt6vectorIPjSaIS0_EE9push_backERKS0_>
  4018af:	48 8d 45 d0          	lea    -0x30(%rbp),%rax
  4018b3:	48 89 c7             	mov    %rax,%rdi
  4018b6:	e8 77 20 00 00       	callq  403932 <_ZSt4moveIRSt6vectorIPjSaIS1_EEEONSt16remove_referenceIT_E4typeEOS6_>
  4018bb:	48 89 c2             	mov    %rax,%rdx
  4018be:	48 8b 45 c8          	mov    -0x38(%rbp),%rax
  4018c2:	48 89 d6             	mov    %rdx,%rsi
  4018c5:	48 89 c7             	mov    %rax,%rdi
  4018c8:	e8 9f 25 00 00       	callq  403e6c <_ZNSt6vectorIPjSaIS0_EEC1EOS2_>
  4018cd:	48 8d 45 d0          	lea    -0x30(%rbp),%rax
  4018d1:	48 89 c7             	mov    %rax,%rdi
  4018d4:	e8 e3 24 00 00       	callq  403dbc <_ZNSt6vectorIPjSaIS0_EED1Ev>
  4018d9:	eb 1a                	jmp    4018f5 <_Z11ModulesDatav+0x81>
  4018db:	48 89 c3             	mov    %rax,%rbx
  4018de:	48 8d 45 d0          	lea    -0x30(%rbp),%rax
  4018e2:	48 89 c7             	mov    %rax,%rdi
  4018e5:	e8 d2 24 00 00       	callq  403dbc <_ZNSt6vectorIPjSaIS0_EED1Ev>
  4018ea:	48 89 d8             	mov    %rbx,%rax
  4018ed:	48 89 c7             	mov    %rax,%rdi
  4018f0:	e8 5b fd ff ff       	callq  401650 <_Unwind_Resume@plt>
  4018f5:	48 8b 45 c8          	mov    -0x38(%rbp),%rax
  4018f9:	48 83 c4 38          	add    $0x38,%rsp
  4018fd:	5b                   	pop    %rbx
  4018fe:	5d                   	pop    %rbp
  4018ff:	c3                   	retq   

0000000000401900 <_Z12ModulesStagev>:
  401900:	55                   	push   %rbp
  401901:	48 89 e5             	mov    %rsp,%rbp
  401904:	53                   	push   %rbx
  401905:	48 83 ec 38          	sub    $0x38,%rsp
  401909:	48 89 7d c8          	mov    %rdi,-0x38(%rbp)
  40190d:	48 8d 45 d0          	lea    -0x30(%rbp),%rax
  401911:	48 89 c7             	mov    %rax,%rdi
  401914:	e8 85 25 00 00       	callq  403e9e <_ZNSt6vectorIN2vk19ShaderStageFlagBitsESaIS1_EEC1Ev>
  401919:	c7 45 e8 01 00 00 00 	movl   $0x1,-0x18(%rbp)
  401920:	48 8d 55 e8          	lea    -0x18(%rbp),%rdx
  401924:	48 8d 45 d0          	lea    -0x30(%rbp),%rax
  401928:	48 89 d6             	mov    %rdx,%rsi
  40192b:	48 89 c7             	mov    %rax,%rdi
  40192e:	e8 d9 25 00 00       	callq  403f0c <_ZNSt6vectorIN2vk19ShaderStageFlagBitsESaIS1_EE9push_backEOS1_>
  401933:	c7 45 ec 10 00 00 00 	movl   $0x10,-0x14(%rbp)
  40193a:	48 8d 55 ec          	lea    -0x14(%rbp),%rdx
  40193e:	48 8d 45 d0          	lea    -0x30(%rbp),%rax
  401942:	48 89 d6             	mov    %rdx,%rsi
  401945:	48 89 c7             	mov    %rax,%rdi
  401948:	e8 bf 25 00 00       	callq  403f0c <_ZNSt6vectorIN2vk19ShaderStageFlagBitsESaIS1_EE9push_backEOS1_>
  40194d:	48 8d 45 d0          	lea    -0x30(%rbp),%rax
  401951:	48 89 c7             	mov    %rax,%rdi
  401954:	e8 e7 1f 00 00       	callq  403940 <_ZSt4moveIRSt6vectorIN2vk19ShaderStageFlagBitsESaIS2_EEEONSt16remove_referenceIT_E4typeEOS7_>
  401959:	48 89 c2             	mov    %rax,%rdx
  40195c:	48 8b 45 c8          	mov    -0x38(%rbp),%rax
  401960:	48 89 d6             	mov    %rdx,%rsi
  401963:	48 89 c7             	mov    %rax,%rdi
  401966:	e8 d3 25 00 00       	callq  403f3e <_ZNSt6vectorIN2vk19ShaderStageFlagBitsESaIS1_EEC1EOS3_>
  40196b:	48 8d 45 d0          	lea    -0x30(%rbp),%rax
  40196f:	48 89 c7             	mov    %rax,%rdi
  401972:	e8 43 25 00 00       	callq  403eba <_ZNSt6vectorIN2vk19ShaderStageFlagBitsESaIS1_EED1Ev>
  401977:	eb 1a                	jmp    401993 <_Z12ModulesStagev+0x93>
  401979:	48 89 c3             	mov    %rax,%rbx
  40197c:	48 8d 45 d0          	lea    -0x30(%rbp),%rax
  401980:	48 89 c7             	mov    %rax,%rdi
  401983:	e8 32 25 00 00       	callq  403eba <_ZNSt6vectorIN2vk19ShaderStageFlagBitsESaIS1_EED1Ev>
  401988:	48 89 d8             	mov    %rbx,%rax
  40198b:	48 89 c7             	mov    %rax,%rdi
  40198e:	e8 bd fc ff ff       	callq  401650 <_Unwind_Resume@plt>
  401993:	48 8b 45 c8          	mov    -0x38(%rbp),%rax
  401997:	48 83 c4 38          	add    $0x38,%rsp
  40199b:	5b                   	pop    %rbx
  40199c:	5d                   	pop    %rbp
  40199d:	c3                   	retq   

000000000040199e <_Z14CreateInstancev>:
  40199e:	55                   	push   %rbp
  40199f:	48 89 e5             	mov    %rsp,%rbp
  4019a2:	41 54                	push   %r12
  4019a4:	53                   	push   %rbx
  4019a5:	48 81 ec 40 01 00 00 	sub    $0x140,%rsp
  4019ac:	48 8d 85 40 ff ff ff 	lea    -0xc0(%rbp),%rax
  4019b3:	48 89 c7             	mov    %rax,%rdi
  4019b6:	e8 25 21 00 00       	callq  403ae0 <_ZN2vk5FlagsINS_22InstanceCreateFlagBitsEjEC1Ev>
  4019bb:	48 8d b5 40 ff ff ff 	lea    -0xc0(%rbp),%rsi
  4019c2:	48 8d 85 00 ff ff ff 	lea    -0x100(%rbp),%rax
  4019c9:	48 83 ec 08          	sub    $0x8,%rsp
  4019cd:	6a 00                	pushq  $0x0
  4019cf:	41 b9 00 00 00 00    	mov    $0x0,%r9d
  4019d5:	41 b8 00 00 00 00    	mov    $0x0,%r8d
  4019db:	b9 00 00 00 00       	mov    $0x0,%ecx
  4019e0:	ba 00 00 00 00       	mov    $0x0,%edx
  4019e5:	48 89 c7             	mov    %rax,%rdi
  4019e8:	e8 c9 17 00 00       	callq  4031b6 <_ZN2vk18InstanceCreateInfoC1ENS_5FlagsINS_22InstanceCreateFlagBitsEjEEPKNS_15ApplicationInfoEjPKPKcjSA_>
  4019ed:	48 83 c4 10          	add    $0x10,%rsp
  4019f1:	48 c7 85 38 ff ff ff 	movq   $0x60d180,-0xc8(%rbp)
  4019f8:	80 d1 60 00 
  4019fc:	48 c7 85 28 ff ff ff 	movq   $0x60d198,-0xd8(%rbp)
  401a03:	98 d1 60 00 
  401a07:	c7 85 30 ff ff ff 03 	movl   $0x3,-0xd0(%rbp)
  401a0e:	00 00 00 
  401a11:	c7 85 20 ff ff ff 01 	movl   $0x1,-0xe0(%rbp)
  401a18:	00 00 00 
  401a1b:	48 8d 85 50 ff ff ff 	lea    -0xb0(%rbp),%rax
  401a22:	be 00 00 00 00       	mov    $0x0,%esi
  401a27:	48 89 c7             	mov    %rax,%rdi
  401a2a:	e8 41 25 00 00       	callq  403f70 <_ZN2vk8OptionalIKNS_19AllocationCallbacksEEC1EDn>
  401a2f:	48 8b 85 50 ff ff ff 	mov    -0xb0(%rbp),%rax
  401a36:	48 89 85 c0 fe ff ff 	mov    %rax,-0x140(%rbp)
  401a3d:	48 8d 85 b0 fe ff ff 	lea    -0x150(%rbp),%rax
  401a44:	48 89 c7             	mov    %rax,%rdi
  401a47:	e8 a6 1e 00 00       	callq  4038f2 <_ZN2vk8InstanceC1Ev>
  401a4c:	48 8d 85 c0 fe ff ff 	lea    -0x140(%rbp),%rax
  401a53:	48 89 c7             	mov    %rax,%rdi
  401a56:	e8 09 22 00 00       	callq  403c64 <_ZNK2vk8OptionalIKNS_19AllocationCallbacksEEcvPS2_Ev>
  401a5b:	48 89 c1             	mov    %rax,%rcx
  401a5e:	48 8d 95 b0 fe ff ff 	lea    -0x150(%rbp),%rdx
  401a65:	48 8d 85 00 ff ff ff 	lea    -0x100(%rbp),%rax
  401a6c:	48 89 ce             	mov    %rcx,%rsi
  401a6f:	48 89 c7             	mov    %rax,%rdi
  401a72:	e8 19 fb ff ff       	callq  401590 <vkCreateInstance@plt>
  401a77:	89 45 e4             	mov    %eax,-0x1c(%rbp)
  401a7a:	8b 45 e4             	mov    -0x1c(%rbp),%eax
  401a7d:	89 45 e0             	mov    %eax,-0x20(%rbp)
  401a80:	48 c7 45 d8 3c 83 40 	movq   $0x40833c,-0x28(%rbp)
  401a87:	00 
  401a88:	83 7d e0 00          	cmpl   $0x0,-0x20(%rbp)
  401a8c:	74 48                	je     401ad6 <_Z14CreateInstancev+0x138>
  401a8e:	bf 20 00 00 00       	mov    $0x20,%edi
  401a93:	e8 d8 f9 ff ff       	callq  401470 <__cxa_allocate_exception@plt>
  401a98:	48 89 c3             	mov    %rax,%rbx
  401a9b:	8b 55 e0             	mov    -0x20(%rbp),%edx
  401a9e:	48 8d 45 a0          	lea    -0x60(%rbp),%rax
  401aa2:	89 d6                	mov    %edx,%esi
  401aa4:	48 89 c7             	mov    %rax,%rdi
  401aa7:	e8 fa 1e 00 00       	callq  4039a6 <_ZNSt10error_codeC1IN2vk6ResultEvEET_>
  401aac:	48 8b 4d d8          	mov    -0x28(%rbp),%rcx
  401ab0:	8b 55 a0             	mov    -0x60(%rbp),%edx
  401ab3:	48 8b 45 a8          	mov    -0x58(%rbp),%rax
  401ab7:	89 d6                	mov    %edx,%esi
  401ab9:	48 89 c2             	mov    %rax,%rdx
  401abc:	48 89 df             	mov    %rbx,%rdi
  401abf:	e8 9a 0a 00 00       	callq  40255e <_ZNSt12system_errorC1ESt10error_codePKc>
  401ac4:	ba 80 15 40 00       	mov    $0x401580,%edx
  401ac9:	be a0 d4 60 00       	mov    $0x60d4a0,%esi
  401ace:	48 89 df             	mov    %rbx,%rdi
  401ad1:	e8 5a fb ff ff       	callq  401630 <__cxa_throw@plt>
  401ad6:	48 8b 85 b0 fe ff ff 	mov    -0x150(%rbp),%rax
  401add:	eb 16                	jmp    401af5 <_Z14CreateInstancev+0x157>
  401adf:	49 89 c4             	mov    %rax,%r12
  401ae2:	48 89 df             	mov    %rbx,%rdi
  401ae5:	e8 f6 f9 ff ff       	callq  4014e0 <__cxa_free_exception@plt>
  401aea:	4c 89 e0             	mov    %r12,%rax
  401aed:	48 89 c7             	mov    %rax,%rdi
  401af0:	e8 5b fb ff ff       	callq  401650 <_Unwind_Resume@plt>
  401af5:	48 89 05 7c ba 20 00 	mov    %rax,0x20ba7c(%rip)        # 60d578 <vinstance>
  401afc:	48 8d 85 60 ff ff ff 	lea    -0xa0(%rbp),%rax
  401b03:	48 89 c7             	mov    %rax,%rdi
  401b06:	e8 25 21 00 00       	callq  403c30 <_ZN2vk5FlagsINS_22DebugReportFlagBitsEXTEjEC1Ev>
  401b0b:	48 8d b5 60 ff ff ff 	lea    -0xa0(%rbp),%rsi
  401b12:	48 8d 85 d0 fe ff ff 	lea    -0x130(%rbp),%rax
  401b19:	b9 00 00 00 00       	mov    $0x0,%ecx
  401b1e:	ba 00 00 00 00       	mov    $0x0,%edx
  401b23:	48 89 c7             	mov    %rax,%rdi
  401b26:	e8 4f 19 00 00       	callq  40347a <_ZN2vk32DebugReportCallbackCreateInfoEXTC1ENS_5FlagsINS_22DebugReportFlagBitsEXTEjEEPFjj26VkDebugReportObjectTypeEXTmmiPKcS6_PvES7_>
  401b2b:	48 8d 45 80          	lea    -0x80(%rbp),%rax
  401b2f:	be 01 00 00 00       	mov    $0x1,%esi
  401b34:	48 89 c7             	mov    %rax,%rdi
  401b37:	e8 7e 20 00 00       	callq  403bba <_ZN2vk5FlagsINS_22DebugReportFlagBitsEXTEjEC1ES1_>
  401b3c:	c7 45 d4 02 00 00 00 	movl   $0x2,-0x2c(%rbp)
  401b43:	c7 45 d0 08 00 00 00 	movl   $0x8,-0x30(%rbp)
  401b4a:	8b 55 d0             	mov    -0x30(%rbp),%edx
  401b4d:	48 8d 45 c0          	lea    -0x40(%rbp),%rax
  401b51:	89 d6                	mov    %edx,%esi
  401b53:	48 89 c7             	mov    %rax,%rdi
  401b56:	e8 5f 20 00 00       	callq  403bba <_ZN2vk5FlagsINS_22DebugReportFlagBitsEXTEjEC1ES1_>
  401b5b:	8b 55 d4             	mov    -0x2c(%rbp),%edx
  401b5e:	48 8d 45 b0          	lea    -0x50(%rbp),%rax
  401b62:	89 d6                	mov    %edx,%esi
  401b64:	48 89 c7             	mov    %rax,%rdi
  401b67:	e8 4e 20 00 00       	callq  403bba <_ZN2vk5FlagsINS_22DebugReportFlagBitsEXTEjEC1ES1_>
  401b6c:	48 8d 45 90          	lea    -0x70(%rbp),%rax
  401b70:	48 8d 55 c0          	lea    -0x40(%rbp),%rdx
  401b74:	48 8d 4d b0          	lea    -0x50(%rbp),%rcx
  401b78:	48 89 ce             	mov    %rcx,%rsi
  401b7b:	48 89 c7             	mov    %rax,%rdi
  401b7e:	e8 4f 20 00 00       	callq  403bd2 <_ZNK2vk5FlagsINS_22DebugReportFlagBitsEXTEjEorERKS2_>
  401b83:	48 8d 85 70 ff ff ff 	lea    -0x90(%rbp),%rax
  401b8a:	48 8d 55 80          	lea    -0x80(%rbp),%rdx
  401b8e:	48 8d 4d 90          	lea    -0x70(%rbp),%rcx
  401b92:	48 89 ce             	mov    %rcx,%rsi
  401b95:	48 89 c7             	mov    %rax,%rdi
  401b98:	e8 35 20 00 00       	callq  403bd2 <_ZNK2vk5FlagsINS_22DebugReportFlagBitsEXTEjEorERKS2_>
  401b9d:	48 8d 95 70 ff ff ff 	lea    -0x90(%rbp),%rdx
  401ba4:	48 8d 85 d0 fe ff ff 	lea    -0x130(%rbp),%rax
  401bab:	48 89 d6             	mov    %rdx,%rsi
  401bae:	48 89 c7             	mov    %rax,%rdi
  401bb1:	e8 24 19 00 00       	callq  4034da <_ZN2vk32DebugReportCallbackCreateInfoEXT8setFlagsENS_5FlagsINS_22DebugReportFlagBitsEXTEjEE>
  401bb6:	48 c7 85 e8 fe ff ff 	movq   $0x4017a6,-0x118(%rbp)
  401bbd:	a6 17 40 00 
  401bc1:	bf 78 d5 60 00       	mov    $0x60d578,%edi
  401bc6:	e8 3d 1d 00 00       	callq  403908 <_ZNK2vk8InstancecvP12VkInstance_TEv>
  401bcb:	be 50 83 40 00       	mov    $0x408350,%esi
  401bd0:	48 89 c7             	mov    %rax,%rdi
  401bd3:	e8 68 f9 ff ff       	callq  401540 <vkGetInstanceProcAddr@plt>
  401bd8:	48 89 45 e8          	mov    %rax,-0x18(%rbp)
  401bdc:	bf 78 d5 60 00       	mov    $0x60d578,%edi
  401be1:	e8 22 1d 00 00       	callq  403908 <_ZNK2vk8InstancecvP12VkInstance_TEv>
  401be6:	48 89 c7             	mov    %rax,%rdi
  401be9:	48 8d 95 c8 fe ff ff 	lea    -0x138(%rbp),%rdx
  401bf0:	48 8d b5 d0 fe ff ff 	lea    -0x130(%rbp),%rsi
  401bf7:	48 8b 45 e8          	mov    -0x18(%rbp),%rax
  401bfb:	48 89 d1             	mov    %rdx,%rcx
  401bfe:	ba 00 00 00 00       	mov    $0x0,%edx
  401c03:	ff d0                	callq  *%rax
  401c05:	90                   	nop
  401c06:	48 8d 65 f0          	lea    -0x10(%rbp),%rsp
  401c0a:	5b                   	pop    %rbx
  401c0b:	41 5c                	pop    %r12
  401c0d:	5d                   	pop    %rbp
  401c0e:	c3                   	retq   

0000000000401c0f <_Z12CreateDevicev>:
  401c0f:	55                   	push   %rbp
  401c10:	48 89 e5             	mov    %rsp,%rbp
  401c13:	41 56                	push   %r14
  401c15:	41 55                	push   %r13
  401c17:	41 54                	push   %r12
  401c19:	53                   	push   %rbx
  401c1a:	48 81 ec 40 01 00 00 	sub    $0x140,%rsp
  401c21:	f3 0f 10 05 67 69 00 	movss  0x6967(%rip),%xmm0        # 408590 <_ZZNK2vk8Instance24enumeratePhysicalDevicesISaINS_14PhysicalDeviceEEEENS_15ResultValueTypeISt6vectorIS2_T_EE4typeEvE19__PRETTY_FUNCTION__+0x150>
  401c28:	00 
  401c29:	f3 0f 11 85 5c ff ff 	movss  %xmm0,-0xa4(%rbp)
  401c30:	ff 
  401c31:	48 8d 85 40 ff ff ff 	lea    -0xc0(%rbp),%rax
  401c38:	be 78 d5 60 00       	mov    $0x60d578,%esi
  401c3d:	48 89 c7             	mov    %rax,%rdi
  401c40:	e8 45 23 00 00       	callq  403f8a <_ZNK2vk8Instance24enumeratePhysicalDevicesISaINS_14PhysicalDeviceEEEENS_15ResultValueTypeISt6vectorIS2_T_EE4typeEv>
  401c45:	48 8d 85 40 ff ff ff 	lea    -0xc0(%rbp),%rax
  401c4c:	be 00 00 00 00       	mov    $0x0,%esi
  401c51:	48 89 c7             	mov    %rax,%rdi
  401c54:	e8 fb 24 00 00       	callq  404154 <_ZNSt6vectorIN2vk14PhysicalDeviceESaIS1_EEixEm>
  401c59:	48 8b 00             	mov    (%rax),%rax
  401c5c:	48 89 05 1d b9 20 00 	mov    %rax,0x20b91d(%rip)        # 60d580 <main_device>
  401c63:	48 8d 85 20 ff ff ff 	lea    -0xe0(%rbp),%rax
  401c6a:	be 80 d5 60 00       	mov    $0x60d580,%esi
  401c6f:	48 89 c7             	mov    %rax,%rdi
  401c72:	e8 fd 24 00 00       	callq  404174 <_ZNK2vk14PhysicalDevice24getQueueFamilyPropertiesISaINS_21QueueFamilyPropertiesEEEESt6vectorIS2_T_Ev>
  401c77:	c7 05 07 b9 20 00 ff 	movl   $0xffffffff,0x20b907(%rip)        # 60d588 <qfamilyIndex>
  401c7e:	ff ff ff 
  401c81:	c7 45 dc 00 00 00 00 	movl   $0x0,-0x24(%rbp)
  401c88:	8b 45 dc             	mov    -0x24(%rbp),%eax
  401c8b:	48 63 d8             	movslq %eax,%rbx
  401c8e:	48 8d 85 20 ff ff ff 	lea    -0xe0(%rbp),%rax
  401c95:	48 89 c7             	mov    %rax,%rdi
  401c98:	e8 b5 25 00 00       	callq  404252 <_ZNKSt6vectorIN2vk21QueueFamilyPropertiesESaIS1_EE4sizeEv>
  401c9d:	48 39 c3             	cmp    %rax,%rbx
  401ca0:	0f 92 c0             	setb   %al
  401ca3:	84 c0                	test   %al,%al
  401ca5:	0f 84 ed 00 00 00    	je     401d98 <_Z12CreateDevicev+0x189>
  401cab:	8b 45 dc             	mov    -0x24(%rbp),%eax
  401cae:	48 63 d0             	movslq %eax,%rdx
  401cb1:	48 8d 85 20 ff ff ff 	lea    -0xe0(%rbp),%rax
  401cb8:	48 89 d6             	mov    %rdx,%rsi
  401cbb:	48 89 c7             	mov    %rax,%rdi
  401cbe:	e8 c7 25 00 00       	callq  40428a <_ZNSt6vectorIN2vk21QueueFamilyPropertiesESaIS1_EEixEm>
  401cc3:	48 89 45 d0          	mov    %rax,-0x30(%rbp)
  401cc7:	bb 00 00 00 00       	mov    $0x0,%ebx
  401ccc:	41 bc 00 00 00 00    	mov    $0x0,%r12d
  401cd2:	41 bd 00 00 00 00    	mov    $0x0,%r13d
  401cd8:	48 8d 85 70 ff ff ff 	lea    -0x90(%rbp),%rax
  401cdf:	be 01 00 00 00       	mov    $0x1,%esi
  401ce4:	48 89 c7             	mov    %rax,%rdi
  401ce7:	e8 20 1e 00 00       	callq  403b0c <_ZN2vk5FlagsINS_13QueueFlagBitsEjEC1ES1_>
  401cec:	41 be 01 00 00 00    	mov    $0x1,%r14d
  401cf2:	48 8b 4d d0          	mov    -0x30(%rbp),%rcx
  401cf6:	48 8d 85 60 ff ff ff 	lea    -0xa0(%rbp),%rax
  401cfd:	48 8d 95 70 ff ff ff 	lea    -0x90(%rbp),%rdx
  401d04:	48 89 ce             	mov    %rcx,%rsi
  401d07:	48 89 c7             	mov    %rax,%rdi
  401d0a:	e8 67 1f 00 00       	callq  403c76 <_ZNK2vk5FlagsINS_13QueueFlagBitsEjEanERKS2_>
  401d0f:	bb 01 00 00 00       	mov    $0x1,%ebx
  401d14:	48 8d 85 60 ff ff ff 	lea    -0xa0(%rbp),%rax
  401d1b:	48 89 c7             	mov    %rax,%rdi
  401d1e:	e8 95 1f 00 00       	callq  403cb8 <_ZNK2vk5FlagsINS_13QueueFlagBitsEjEcvbEv>
  401d23:	84 c0                	test   %al,%al
  401d25:	74 4b                	je     401d72 <_Z12CreateDevicev+0x163>
  401d27:	48 8d 45 90          	lea    -0x70(%rbp),%rax
  401d2b:	be 02 00 00 00       	mov    $0x2,%esi
  401d30:	48 89 c7             	mov    %rax,%rdi
  401d33:	e8 d4 1d 00 00       	callq  403b0c <_ZN2vk5FlagsINS_13QueueFlagBitsEjEC1ES1_>
  401d38:	41 bc 01 00 00 00    	mov    $0x1,%r12d
  401d3e:	48 8b 4d d0          	mov    -0x30(%rbp),%rcx
  401d42:	48 8d 45 80          	lea    -0x80(%rbp),%rax
  401d46:	48 8d 55 90          	lea    -0x70(%rbp),%rdx
  401d4a:	48 89 ce             	mov    %rcx,%rsi
  401d4d:	48 89 c7             	mov    %rax,%rdi
  401d50:	e8 21 1f 00 00       	callq  403c76 <_ZNK2vk5FlagsINS_13QueueFlagBitsEjEanERKS2_>
  401d55:	41 bd 01 00 00 00    	mov    $0x1,%r13d
  401d5b:	48 8d 45 80          	lea    -0x80(%rbp),%rax
  401d5f:	48 89 c7             	mov    %rax,%rdi
  401d62:	e8 51 1f 00 00       	callq  403cb8 <_ZNK2vk5FlagsINS_13QueueFlagBitsEjEcvbEv>
  401d67:	84 c0                	test   %al,%al
  401d69:	74 07                	je     401d72 <_Z12CreateDevicev+0x163>
  401d6b:	b8 01 00 00 00       	mov    $0x1,%eax
  401d70:	eb 05                	jmp    401d77 <_Z12CreateDevicev+0x168>
  401d72:	b8 00 00 00 00       	mov    $0x0,%eax
  401d77:	45 84 ed             	test   %r13b,%r13b
  401d7a:	45 84 e4             	test   %r12b,%r12b
  401d7d:	84 db                	test   %bl,%bl
  401d7f:	45 84 f6             	test   %r14b,%r14b
  401d82:	84 c0                	test   %al,%al
  401d84:	74 09                	je     401d8f <_Z12CreateDevicev+0x180>
  401d86:	8b 45 dc             	mov    -0x24(%rbp),%eax
  401d89:	89 05 f9 b7 20 00    	mov    %eax,0x20b7f9(%rip)        # 60d588 <qfamilyIndex>
  401d8f:	83 45 dc 01          	addl   $0x1,-0x24(%rbp)
  401d93:	e9 f0 fe ff ff       	jmpq   401c88 <_Z12CreateDevicev+0x79>
  401d98:	8b 05 ea b7 20 00    	mov    0x20b7ea(%rip),%eax        # 60d588 <qfamilyIndex>
  401d9e:	83 f8 ff             	cmp    $0xffffffff,%eax
  401da1:	75 28                	jne    401dcb <_Z12CreateDevicev+0x1bc>
  401da3:	48 8b 05 96 b7 20 00 	mov    0x20b796(%rip),%rax        # 60d540 <stderr@@GLIBC_2.2.5>
  401daa:	48 89 c1             	mov    %rax,%rcx
  401dad:	ba 1a 00 00 00       	mov    $0x1a,%edx
  401db2:	be 01 00 00 00       	mov    $0x1,%esi
  401db7:	bf 6f 83 40 00       	mov    $0x40836f,%edi
  401dbc:	e8 df f8 ff ff       	callq  4016a0 <fwrite@plt>
  401dc1:	bb 00 00 00 00       	mov    $0x0,%ebx
  401dc6:	e9 0d 01 00 00       	jmpq   401ed8 <_Z12CreateDevicev+0x2c9>
  401dcb:	48 8d 45 a0          	lea    -0x60(%rbp),%rax
  401dcf:	48 89 c7             	mov    %rax,%rdi
  401dd2:	e8 dd 1c 00 00       	callq  403ab4 <_ZN2vk5FlagsINS_25DeviceQueueCreateFlagBitsEjEC1Ev>
  401dd7:	48 8d 75 a0          	lea    -0x60(%rbp),%rsi
  401ddb:	48 8d 85 f0 fe ff ff 	lea    -0x110(%rbp),%rax
  401de2:	41 b8 00 00 00 00    	mov    $0x0,%r8d
  401de8:	b9 00 00 00 00       	mov    $0x0,%ecx
  401ded:	ba 00 00 00 00       	mov    $0x0,%edx
  401df2:	48 89 c7             	mov    %rax,%rdi
  401df5:	e8 b4 12 00 00       	callq  4030ae <_ZN2vk21DeviceQueueCreateInfoC1ENS_5FlagsINS_25DeviceQueueCreateFlagBitsEjEEjjPKf>
  401dfa:	8b 05 88 b7 20 00    	mov    0x20b788(%rip),%eax        # 60d588 <qfamilyIndex>
  401e00:	89 85 04 ff ff ff    	mov    %eax,-0xfc(%rbp)
  401e06:	c7 85 08 ff ff ff 01 	movl   $0x1,-0xf8(%rbp)
  401e0d:	00 00 00 
  401e10:	48 8d 85 5c ff ff ff 	lea    -0xa4(%rbp),%rax
  401e17:	48 89 85 10 ff ff ff 	mov    %rax,-0xf0(%rbp)
  401e1e:	48 8d 45 b0          	lea    -0x50(%rbp),%rax
  401e22:	48 89 c7             	mov    %rax,%rdi
  401e25:	e8 a0 1c 00 00       	callq  403aca <_ZN2vk5FlagsINS_20DeviceCreateFlagBitsEjEC1Ev>
  401e2a:	48 8d 75 b0          	lea    -0x50(%rbp),%rsi
  401e2e:	48 8d 85 a0 fe ff ff 	lea    -0x160(%rbp),%rax
  401e35:	48 83 ec 08          	sub    $0x8,%rsp
  401e39:	6a 00                	pushq  $0x0
  401e3b:	6a 00                	pushq  $0x0
  401e3d:	6a 00                	pushq  $0x0
  401e3f:	41 b9 00 00 00 00    	mov    $0x0,%r9d
  401e45:	41 b8 00 00 00 00    	mov    $0x0,%r8d
  401e4b:	b9 00 00 00 00       	mov    $0x0,%ecx
  401e50:	ba 00 00 00 00       	mov    $0x0,%edx
  401e55:	48 89 c7             	mov    %rax,%rdi
  401e58:	e8 bb 12 00 00       	callq  403118 <_ZN2vk16DeviceCreateInfoC1ENS_5FlagsINS_20DeviceCreateFlagBitsEjEEjPKNS_21DeviceQueueCreateInfoEjPKPKcjSA_PKNS_22PhysicalDeviceFeaturesE>
  401e5d:	48 83 c4 20          	add    $0x20,%rsp
  401e61:	48 c7 85 c8 fe ff ff 	movq   $0x60d198,-0x138(%rbp)
  401e68:	98 d1 60 00 
  401e6c:	c7 85 c0 fe ff ff 01 	movl   $0x1,-0x140(%rbp)
  401e73:	00 00 00 
  401e76:	48 8d 85 f0 fe ff ff 	lea    -0x110(%rbp),%rax
  401e7d:	48 89 85 b8 fe ff ff 	mov    %rax,-0x148(%rbp)
  401e84:	c7 85 b4 fe ff ff 01 	movl   $0x1,-0x14c(%rbp)
  401e8b:	00 00 00 
  401e8e:	48 8d 45 c0          	lea    -0x40(%rbp),%rax
  401e92:	be 00 00 00 00       	mov    $0x0,%esi
  401e97:	48 89 c7             	mov    %rax,%rdi
  401e9a:	e8 d1 20 00 00       	callq  403f70 <_ZN2vk8OptionalIKNS_19AllocationCallbacksEEC1EDn>
  401e9f:	48 8d 85 40 ff ff ff 	lea    -0xc0(%rbp),%rax
  401ea6:	be 00 00 00 00       	mov    $0x0,%esi
  401eab:	48 89 c7             	mov    %rax,%rdi
  401eae:	e8 a1 22 00 00       	callq  404154 <_ZNSt6vectorIN2vk14PhysicalDeviceESaIS1_EEixEm>
  401eb3:	48 89 c1             	mov    %rax,%rcx
  401eb6:	48 8b 55 c0          	mov    -0x40(%rbp),%rdx
  401eba:	48 8d 85 a0 fe ff ff 	lea    -0x160(%rbp),%rax
  401ec1:	48 89 c6             	mov    %rax,%rsi
  401ec4:	48 89 cf             	mov    %rcx,%rdi
  401ec7:	e8 52 19 00 00       	callq  40381e <_ZNK2vk14PhysicalDevice12createDeviceERKNS_16DeviceCreateInfoENS_8OptionalIKNS_19AllocationCallbacksEEE>
  401ecc:	48 89 05 c5 b6 20 00 	mov    %rax,0x20b6c5(%rip)        # 60d598 <D>
  401ed3:	bb 01 00 00 00       	mov    $0x1,%ebx
  401ed8:	48 8d 85 20 ff ff ff 	lea    -0xe0(%rbp),%rax
  401edf:	48 89 c7             	mov    %rax,%rdi
  401ee2:	e8 27 23 00 00       	callq  40420e <_ZNSt6vectorIN2vk21QueueFamilyPropertiesESaIS1_EED1Ev>
  401ee7:	48 8d 85 40 ff ff ff 	lea    -0xc0(%rbp),%rax
  401eee:	48 89 c7             	mov    %rax,%rdi
  401ef1:	e8 1a 22 00 00       	callq  404110 <_ZNSt6vectorIN2vk14PhysicalDeviceESaIS1_EED1Ev>
  401ef6:	89 d8                	mov    %ebx,%eax
  401ef8:	eb 42                	jmp    401f3c <_Z12CreateDevicev+0x32d>
  401efa:	45 84 ed             	test   %r13b,%r13b
  401efd:	45 84 e4             	test   %r12b,%r12b
  401f00:	84 db                	test   %bl,%bl
  401f02:	45 84 f6             	test   %r14b,%r14b
  401f05:	90                   	nop
  401f06:	48 89 c3             	mov    %rax,%rbx
  401f09:	eb 03                	jmp    401f0e <_Z12CreateDevicev+0x2ff>
  401f0b:	48 89 c3             	mov    %rax,%rbx
  401f0e:	48 8d 85 20 ff ff ff 	lea    -0xe0(%rbp),%rax
  401f15:	48 89 c7             	mov    %rax,%rdi
  401f18:	e8 f1 22 00 00       	callq  40420e <_ZNSt6vectorIN2vk21QueueFamilyPropertiesESaIS1_EED1Ev>
  401f1d:	eb 03                	jmp    401f22 <_Z12CreateDevicev+0x313>
  401f1f:	48 89 c3             	mov    %rax,%rbx
  401f22:	48 8d 85 40 ff ff ff 	lea    -0xc0(%rbp),%rax
  401f29:	48 89 c7             	mov    %rax,%rdi
  401f2c:	e8 df 21 00 00       	callq  404110 <_ZNSt6vectorIN2vk14PhysicalDeviceESaIS1_EED1Ev>
  401f31:	48 89 d8             	mov    %rbx,%rax
  401f34:	48 89 c7             	mov    %rax,%rdi
  401f37:	e8 14 f7 ff ff       	callq  401650 <_Unwind_Resume@plt>
  401f3c:	48 8d 65 e0          	lea    -0x20(%rbp),%rsp
  401f40:	5b                   	pop    %rbx
  401f41:	41 5c                	pop    %r12
  401f43:	41 5d                	pop    %r13
  401f45:	41 5e                	pop    %r14
  401f47:	5d                   	pop    %rbp
  401f48:	c3                   	retq   

0000000000401f49 <_Z18CreateCommandQueuev>:
  401f49:	55                   	push   %rbp
  401f4a:	48 89 e5             	mov    %rsp,%rbp
  401f4d:	48 83 ec 50          	sub    $0x50,%rsp
  401f51:	8b 05 31 b6 20 00    	mov    0x20b631(%rip),%eax        # 60d588 <qfamilyIndex>
  401f57:	ba 00 00 00 00       	mov    $0x0,%edx
  401f5c:	89 c6                	mov    %eax,%esi
  401f5e:	bf 98 d5 60 00       	mov    $0x60d598,%edi
  401f63:	e8 cc 15 00 00       	callq  403534 <_ZNK2vk6Device8getQueueEjj>
  401f68:	48 89 45 d0          	mov    %rax,-0x30(%rbp)
  401f6c:	48 8d 45 e0          	lea    -0x20(%rbp),%rax
  401f70:	48 89 c7             	mov    %rax,%rdi
  401f73:	e8 2c 1c 00 00       	callq  403ba4 <_ZN2vk5FlagsINS_25CommandPoolCreateFlagBitsEjEC1Ev>
  401f78:	48 8d 4d e0          	lea    -0x20(%rbp),%rcx
  401f7c:	48 8d 45 b0          	lea    -0x50(%rbp),%rax
  401f80:	ba 00 00 00 00       	mov    $0x0,%edx
  401f85:	48 89 ce             	mov    %rcx,%rsi
  401f88:	48 89 c7             	mov    %rax,%rdi
  401f8b:	e8 8c 13 00 00       	callq  40331c <_ZN2vk21CommandPoolCreateInfoC1ENS_5FlagsINS_25CommandPoolCreateFlagBitsEjEEj>
  401f90:	8b 05 f2 b5 20 00    	mov    0x20b5f2(%rip),%eax        # 60d588 <qfamilyIndex>
  401f96:	89 45 c4             	mov    %eax,-0x3c(%rbp)
  401f99:	48 8d 45 f0          	lea    -0x10(%rbp),%rax
  401f9d:	be 00 00 00 00       	mov    $0x0,%esi
  401fa2:	48 89 c7             	mov    %rax,%rdi
  401fa5:	e8 c6 1f 00 00       	callq  403f70 <_ZN2vk8OptionalIKNS_19AllocationCallbacksEEC1EDn>
  401faa:	48 8b 55 f0          	mov    -0x10(%rbp),%rdx
  401fae:	48 8d 45 b0          	lea    -0x50(%rbp),%rax
  401fb2:	48 89 c6             	mov    %rax,%rsi
  401fb5:	bf 98 d5 60 00       	mov    $0x60d598,%edi
  401fba:	e8 75 17 00 00       	callq  403734 <_ZNK2vk6Device17createCommandPoolERKNS_21CommandPoolCreateInfoENS_8OptionalIKNS_19AllocationCallbacksEEE>
  401fbf:	48 89 05 ca b5 20 00 	mov    %rax,0x20b5ca(%rip)        # 60d590 <pool>
  401fc6:	90                   	nop
  401fc7:	c9                   	leaveq 
  401fc8:	c3                   	retq   

0000000000401fc9 <_Z14CreatePipelinev>:
  401fc9:	55                   	push   %rbp
  401fca:	48 89 e5             	mov    %rsp,%rbp
  401fcd:	41 57                	push   %r15
  401fcf:	41 56                	push   %r14
  401fd1:	41 55                	push   %r13
  401fd3:	41 54                	push   %r12
  401fd5:	53                   	push   %rbx
  401fd6:	48 81 ec 78 02 00 00 	sub    $0x278,%rsp
  401fdd:	48 8d 85 a0 fe ff ff 	lea    -0x160(%rbp),%rax
  401fe4:	48 89 c7             	mov    %rax,%rdi
  401fe7:	e8 22 10 00 00       	callq  40300e <_ZN2vk8PipelineC1Ev>
  401fec:	48 8d 85 b0 fe ff ff 	lea    -0x150(%rbp),%rax
  401ff3:	48 89 c7             	mov    %rax,%rdi
  401ff6:	e8 3f 10 00 00       	callq  40303a <_ZN2vk10RenderPassC1Ev>
  401ffb:	48 8d 85 c0 fe ff ff 	lea    -0x140(%rbp),%rax
  402002:	48 89 c7             	mov    %rax,%rdi
  402005:	e8 1a 10 00 00       	callq  403024 <_ZN2vk14PipelineLayoutC1Ev>
  40200a:	48 8d 85 d0 fe ff ff 	lea    -0x130(%rbp),%rax
  402011:	48 89 c7             	mov    %rax,%rdi
  402014:	e8 59 1b 00 00       	callq  403b72 <_ZN2vk5FlagsINS_22PipelineCreateFlagBitsEjEC1Ev>
  402019:	48 8d b5 d0 fe ff ff 	lea    -0x130(%rbp),%rsi
  402020:	48 8d 85 10 fe ff ff 	lea    -0x1f0(%rbp),%rax
  402027:	6a 00                	pushq  $0x0
  402029:	ff b5 a0 fe ff ff    	pushq  -0x160(%rbp)
  40202f:	6a 00                	pushq  $0x0
  402031:	ff b5 b0 fe ff ff    	pushq  -0x150(%rbp)
  402037:	ff b5 c0 fe ff ff    	pushq  -0x140(%rbp)
  40203d:	6a 00                	pushq  $0x0
  40203f:	6a 00                	pushq  $0x0
  402041:	6a 00                	pushq  $0x0
  402043:	6a 00                	pushq  $0x0
  402045:	6a 00                	pushq  $0x0
  402047:	6a 00                	pushq  $0x0
  402049:	6a 00                	pushq  $0x0
  40204b:	41 b9 00 00 00 00    	mov    $0x0,%r9d
  402051:	41 b8 00 00 00 00    	mov    $0x0,%r8d
  402057:	b9 00 00 00 00       	mov    $0x0,%ecx
  40205c:	ba 00 00 00 00       	mov    $0x0,%edx
  402061:	48 89 c7             	mov    %rax,%rdi
  402064:	e8 01 13 00 00       	callq  40336a <_ZN2vk26GraphicsPipelineCreateInfoC1ENS_5FlagsINS_22PipelineCreateFlagBitsEjEEjPKNS_29PipelineShaderStageCreateInfoEPKNS_34PipelineVertexInputStateCreateInfoEPKNS_36PipelineInputAssemblyStateCreateInfoEPKNS_35PipelineTessellationStateCreateInfoEPKNS_31PipelineViewportStateCreateInfoEPKNS_36PipelineRasterizationStateCreateInfoEPKNS_34PipelineMultisampleStateCreateInfoEPKNS_35PipelineDepthStencilStateCreateInfoEPKNS_33PipelineColorBlendStateCreateInfoEPKNS_30PipelineDynamicStateCreateInfoENS_14PipelineLayoutENS_10RenderPassEjNS_8PipelineEi>
  402069:	48 83 c4 60          	add    $0x60,%rsp
  40206d:	48 8d 85 b0 fd ff ff 	lea    -0x250(%rbp),%rax
  402074:	bb 01 00 00 00       	mov    $0x1,%ebx
  402079:	48 89 85 68 fd ff ff 	mov    %rax,-0x298(%rbp)
  402080:	48 85 db             	test   %rbx,%rbx
  402083:	78 5d                	js     4020e2 <_Z14CreatePipelinev+0x119>
  402085:	48 8d 85 e0 fe ff ff 	lea    -0x120(%rbp),%rax
  40208c:	48 89 c7             	mov    %rax,%rdi
  40208f:	e8 64 0f 00 00       	callq  402ff8 <_ZN2vk12ShaderModuleC1Ev>
  402094:	48 8d 85 f0 fe ff ff 	lea    -0x110(%rbp),%rax
  40209b:	48 89 c7             	mov    %rax,%rdi
  40209e:	e8 9d 1a 00 00       	callq  403b40 <_ZN2vk5FlagsINS_33PipelineShaderStageCreateFlagBitsEjEC1Ev>
  4020a3:	48 8b 95 e0 fe ff ff 	mov    -0x120(%rbp),%rdx
  4020aa:	48 8d 85 f0 fe ff ff 	lea    -0x110(%rbp),%rax
  4020b1:	41 b9 00 00 00 00    	mov    $0x0,%r9d
  4020b7:	41 b8 00 00 00 00    	mov    $0x0,%r8d
  4020bd:	48 89 d1             	mov    %rdx,%rcx
  4020c0:	ba 01 00 00 00       	mov    $0x1,%edx
  4020c5:	48 89 c6             	mov    %rax,%rsi
  4020c8:	48 8b bd 68 fd ff ff 	mov    -0x298(%rbp),%rdi
  4020cf:	e8 ca 11 00 00       	callq  40329e <_ZN2vk29PipelineShaderStageCreateInfoC1ENS_5FlagsINS_33PipelineShaderStageCreateFlagBitsEjEENS_19ShaderStageFlagBitsENS_12ShaderModuleEPKcPKNS_18SpecializationInfoE>
  4020d4:	48 83 85 68 fd ff ff 	addq   $0x30,-0x298(%rbp)
  4020db:	30 
  4020dc:	48 83 eb 01          	sub    $0x1,%rbx
  4020e0:	eb 9e                	jmp    402080 <_Z14CreatePipelinev+0xb7>
  4020e2:	c7 45 cc 00 00 00 00 	movl   $0x0,-0x34(%rbp)
  4020e9:	e8 2b 18 00 00       	callq  403919 <_Z7Modulesv>
  4020ee:	89 c2                	mov    %eax,%edx
  4020f0:	8b 45 cc             	mov    -0x34(%rbp),%eax
  4020f3:	39 c2                	cmp    %eax,%edx
  4020f5:	0f 97 c0             	seta   %al
  4020f8:	84 c0                	test   %al,%al
  4020fa:	0f 84 c6 02 00 00    	je     4023c6 <_Z14CreatePipelinev+0x3fd>
  402100:	48 89 e0             	mov    %rsp,%rax
  402103:	48 89 85 60 fd ff ff 	mov    %rax,-0x2a0(%rbp)
  40210a:	48 8d 85 00 ff ff ff 	lea    -0x100(%rbp),%rax
  402111:	48 89 c7             	mov    %rax,%rdi
  402114:	e8 dd 19 00 00       	callq  403af6 <_ZN2vk5FlagsINS_26ShaderModuleCreateFlagBitsEjEC1Ev>
  402119:	48 8d b5 00 ff ff ff 	lea    -0x100(%rbp),%rsi
  402120:	48 8d 85 70 fd ff ff 	lea    -0x290(%rbp),%rax
  402127:	b9 00 00 00 00       	mov    $0x0,%ecx
  40212c:	ba 00 00 00 00       	mov    $0x0,%edx
  402131:	48 89 c7             	mov    %rax,%rdi
  402134:	e8 05 11 00 00       	callq  40323e <_ZN2vk22ShaderModuleCreateInfoC1ENS_5FlagsINS_26ShaderModuleCreateFlagBitsEjEEmPKj>
  402139:	8b 45 cc             	mov    -0x34(%rbp),%eax
  40213c:	48 63 d8             	movslq %eax,%rbx
  40213f:	48 8d 85 10 ff ff ff 	lea    -0xf0(%rbp),%rax
  402146:	48 89 c7             	mov    %rax,%rdi
  402149:	e8 26 f7 ff ff       	callq  401874 <_Z11ModulesDatav>
  40214e:	48 8d 85 10 ff ff ff 	lea    -0xf0(%rbp),%rax
  402155:	48 89 de             	mov    %rbx,%rsi
  402158:	48 89 c7             	mov    %rax,%rdi
  40215b:	e8 54 21 00 00       	callq  4042b4 <_ZNSt6vectorIPjSaIS0_EEixEm>
  402160:	48 8b 00             	mov    (%rax),%rax
  402163:	48 89 85 90 fd ff ff 	mov    %rax,-0x270(%rbp)
  40216a:	48 8d 85 10 ff ff ff 	lea    -0xf0(%rbp),%rax
  402171:	48 89 c7             	mov    %rax,%rdi
  402174:	e8 43 1c 00 00       	callq  403dbc <_ZNSt6vectorIPjSaIS0_EED1Ev>
  402179:	48 8b 85 90 fd ff ff 	mov    -0x270(%rbp),%rax
  402180:	48 89 c6             	mov    %rax,%rsi
  402183:	bf 8a 83 40 00       	mov    $0x40838a,%edi
  402188:	b8 00 00 00 00       	mov    $0x0,%eax
  40218d:	e8 6e f2 ff ff       	callq  401400 <printf@plt>
  402192:	8b 45 cc             	mov    -0x34(%rbp),%eax
  402195:	48 63 d8             	movslq %eax,%rbx
  402198:	48 8d 85 30 ff ff ff 	lea    -0xd0(%rbp),%rax
  40219f:	48 89 c7             	mov    %rax,%rdi
  4021a2:	e8 2d f6 ff ff       	callq  4017d4 <_Z11ModuleSizesv>
  4021a7:	48 8d 85 30 ff ff ff 	lea    -0xd0(%rbp),%rax
  4021ae:	48 89 de             	mov    %rbx,%rsi
  4021b1:	48 89 c7             	mov    %rax,%rdi
  4021b4:	e8 1b 21 00 00       	callq  4042d4 <_ZNSt6vectorIjSaIjEEixEm>
  4021b9:	8b 00                	mov    (%rax),%eax
  4021bb:	89 c0                	mov    %eax,%eax
  4021bd:	48 89 85 88 fd ff ff 	mov    %rax,-0x278(%rbp)
  4021c4:	48 8d 85 30 ff ff ff 	lea    -0xd0(%rbp),%rax
  4021cb:	48 89 c7             	mov    %rax,%rdi
  4021ce:	e8 17 1b 00 00       	callq  403cea <_ZNSt6vectorIjSaIjEED1Ev>
  4021d3:	48 8d 85 50 ff ff ff 	lea    -0xb0(%rbp),%rax
  4021da:	be 00 00 00 00       	mov    $0x0,%esi
  4021df:	48 89 c7             	mov    %rax,%rdi
  4021e2:	e8 89 1d 00 00       	callq  403f70 <_ZN2vk8OptionalIKNS_19AllocationCallbacksEEC1EDn>
  4021e7:	48 8b 95 50 ff ff ff 	mov    -0xb0(%rbp),%rdx
  4021ee:	48 8d 85 70 fd ff ff 	lea    -0x290(%rbp),%rax
  4021f5:	48 89 c6             	mov    %rax,%rsi
  4021f8:	bf 98 d5 60 00       	mov    $0x60d598,%edi
  4021fd:	e8 70 13 00 00       	callq  403572 <_ZNK2vk6Device18createShaderModuleERKNS_22ShaderModuleCreateInfoENS_8OptionalIKNS_19AllocationCallbacksEEE>
  402202:	48 89 85 a0 fd ff ff 	mov    %rax,-0x260(%rbp)
  402209:	8b 45 cc             	mov    -0x34(%rbp),%eax
  40220c:	48 98                	cltq   
  40220e:	48 8d 48 ff          	lea    -0x1(%rax),%rcx
  402212:	48 89 4d c0          	mov    %rcx,-0x40(%rbp)
  402216:	48 89 c8             	mov    %rcx,%rax
  402219:	48 83 c0 01          	add    $0x1,%rax
  40221d:	49 89 c4             	mov    %rax,%r12
  402220:	41 bd 00 00 00 00    	mov    $0x0,%r13d
  402226:	49 69 d5 80 01 00 00 	imul   $0x180,%r13,%rdx
  40222d:	49 6b c4 00          	imul   $0x0,%r12,%rax
  402231:	48 8d 34 02          	lea    (%rdx,%rax,1),%rsi
  402235:	b8 80 01 00 00       	mov    $0x180,%eax
  40223a:	49 f7 e4             	mul    %r12
  40223d:	48 01 d6             	add    %rdx,%rsi
  402240:	48 89 f2             	mov    %rsi,%rdx
  402243:	48 89 c8             	mov    %rcx,%rax
  402246:	48 8d 50 01          	lea    0x1(%rax),%rdx
  40224a:	48 89 d0             	mov    %rdx,%rax
  40224d:	48 01 c0             	add    %rax,%rax
  402250:	48 01 d0             	add    %rdx,%rax
  402253:	48 c1 e0 04          	shl    $0x4,%rax
  402257:	48 89 c8             	mov    %rcx,%rax
  40225a:	48 83 c0 01          	add    $0x1,%rax
  40225e:	49 89 c6             	mov    %rax,%r14
  402261:	41 bf 00 00 00 00    	mov    $0x0,%r15d
  402267:	49 69 d7 80 01 00 00 	imul   $0x180,%r15,%rdx
  40226e:	49 6b c6 00          	imul   $0x0,%r14,%rax
  402272:	48 8d 34 02          	lea    (%rdx,%rax,1),%rsi
  402276:	b8 80 01 00 00       	mov    $0x180,%eax
  40227b:	49 f7 e6             	mul    %r14
  40227e:	48 01 d6             	add    %rdx,%rsi
  402281:	48 89 f2             	mov    %rsi,%rdx
  402284:	48 89 c8             	mov    %rcx,%rax
  402287:	48 8d 50 01          	lea    0x1(%rax),%rdx
  40228b:	48 89 d0             	mov    %rdx,%rax
  40228e:	48 01 c0             	add    %rax,%rax
  402291:	48 01 d0             	add    %rdx,%rax
  402294:	48 c1 e0 04          	shl    $0x4,%rax
  402298:	48 8d 50 07          	lea    0x7(%rax),%rdx
  40229c:	b8 10 00 00 00       	mov    $0x10,%eax
  4022a1:	48 83 e8 01          	sub    $0x1,%rax
  4022a5:	48 01 d0             	add    %rdx,%rax
  4022a8:	bb 10 00 00 00       	mov    $0x10,%ebx
  4022ad:	ba 00 00 00 00       	mov    $0x0,%edx
  4022b2:	48 f7 f3             	div    %rbx
  4022b5:	48 6b c0 10          	imul   $0x10,%rax,%rax
  4022b9:	48 29 c4             	sub    %rax,%rsp
  4022bc:	48 89 e0             	mov    %rsp,%rax
  4022bf:	48 83 c0 07          	add    $0x7,%rax
  4022c3:	48 c1 e8 03          	shr    $0x3,%rax
  4022c7:	48 c1 e0 03          	shl    $0x3,%rax
  4022cb:	48 89 45 b8          	mov    %rax,-0x48(%rbp)
  4022cf:	48 8b 45 b8          	mov    -0x48(%rbp),%rax
  4022d3:	48 89 cb             	mov    %rcx,%rbx
  4022d6:	48 89 85 68 fd ff ff 	mov    %rax,-0x298(%rbp)
  4022dd:	48 85 db             	test   %rbx,%rbx
  4022e0:	78 5d                	js     40233f <_Z14CreatePipelinev+0x376>
  4022e2:	48 8d 85 60 ff ff ff 	lea    -0xa0(%rbp),%rax
  4022e9:	48 89 c7             	mov    %rax,%rdi
  4022ec:	e8 07 0d 00 00       	callq  402ff8 <_ZN2vk12ShaderModuleC1Ev>
  4022f1:	48 8d 85 70 ff ff ff 	lea    -0x90(%rbp),%rax
  4022f8:	48 89 c7             	mov    %rax,%rdi
  4022fb:	e8 40 18 00 00       	callq  403b40 <_ZN2vk5FlagsINS_33PipelineShaderStageCreateFlagBitsEjEC1Ev>
  402300:	48 8b 95 60 ff ff ff 	mov    -0xa0(%rbp),%rdx
  402307:	48 8d 85 70 ff ff ff 	lea    -0x90(%rbp),%rax
  40230e:	41 b9 00 00 00 00    	mov    $0x0,%r9d
  402314:	41 b8 00 00 00 00    	mov    $0x0,%r8d
  40231a:	48 89 d1             	mov    %rdx,%rcx
  40231d:	ba 01 00 00 00       	mov    $0x1,%edx
  402322:	48 89 c6             	mov    %rax,%rsi
  402325:	48 8b bd 68 fd ff ff 	mov    -0x298(%rbp),%rdi
  40232c:	e8 6d 0f 00 00       	callq  40329e <_ZN2vk29PipelineShaderStageCreateInfoC1ENS_5FlagsINS_33PipelineShaderStageCreateFlagBitsEjEENS_19ShaderStageFlagBitsENS_12ShaderModuleEPKcPKNS_18SpecializationInfoE>
  402331:	48 83 85 68 fd ff ff 	addq   $0x30,-0x298(%rbp)
  402338:	30 
  402339:	48 83 eb 01          	sub    $0x1,%rbx
  40233d:	eb 9e                	jmp    4022dd <_Z14CreatePipelinev+0x314>
  40233f:	48 8b 4d b8          	mov    -0x48(%rbp),%rcx
  402343:	8b 45 cc             	mov    -0x34(%rbp),%eax
  402346:	48 63 d0             	movslq %eax,%rdx
  402349:	48 89 d0             	mov    %rdx,%rax
  40234c:	48 01 c0             	add    %rax,%rax
  40234f:	48 01 d0             	add    %rdx,%rax
  402352:	48 c1 e0 04          	shl    $0x4,%rax
  402356:	48 01 c8             	add    %rcx,%rax
  402359:	48 8d 50 18          	lea    0x18(%rax),%rdx
  40235d:	48 8b 85 a0 fd ff ff 	mov    -0x260(%rbp),%rax
  402364:	48 89 02             	mov    %rax,(%rdx)
  402367:	8b 45 cc             	mov    -0x34(%rbp),%eax
  40236a:	48 63 d8             	movslq %eax,%rbx
  40236d:	48 8d 45 80          	lea    -0x80(%rbp),%rax
  402371:	48 89 c7             	mov    %rax,%rdi
  402374:	e8 87 f5 ff ff       	callq  401900 <_Z12ModulesStagev>
  402379:	48 8d 45 80          	lea    -0x80(%rbp),%rax
  40237d:	48 89 de             	mov    %rbx,%rsi
  402380:	48 89 c7             	mov    %rax,%rdi
  402383:	e8 6c 1f 00 00       	callq  4042f4 <_ZNSt6vectorIN2vk19ShaderStageFlagBitsESaIS1_EEixEm>
  402388:	8b 08                	mov    (%rax),%ecx
  40238a:	48 8b 75 b8          	mov    -0x48(%rbp),%rsi
  40238e:	8b 45 cc             	mov    -0x34(%rbp),%eax
  402391:	48 63 d0             	movslq %eax,%rdx
  402394:	48 89 d0             	mov    %rdx,%rax
  402397:	48 01 c0             	add    %rax,%rax
  40239a:	48 01 d0             	add    %rdx,%rax
  40239d:	48 c1 e0 04          	shl    $0x4,%rax
  4023a1:	48 01 f0             	add    %rsi,%rax
  4023a4:	48 83 c0 14          	add    $0x14,%rax
  4023a8:	89 08                	mov    %ecx,(%rax)
  4023aa:	48 8d 45 80          	lea    -0x80(%rbp),%rax
  4023ae:	48 89 c7             	mov    %rax,%rdi
  4023b1:	e8 04 1b 00 00       	callq  403eba <_ZNSt6vectorIN2vk19ShaderStageFlagBitsESaIS1_EED1Ev>
  4023b6:	48 8b a5 60 fd ff ff 	mov    -0x2a0(%rbp),%rsp
  4023bd:	83 45 cc 01          	addl   $0x1,-0x34(%rbp)
  4023c1:	e9 23 fd ff ff       	jmpq   4020e9 <_Z14CreatePipelinev+0x120>
  4023c6:	48 8d 45 a0          	lea    -0x60(%rbp),%rax
  4023ca:	be 00 00 00 00       	mov    $0x0,%esi
  4023cf:	48 89 c7             	mov    %rax,%rdi
  4023d2:	e8 99 1b 00 00       	callq  403f70 <_ZN2vk8OptionalIKNS_19AllocationCallbacksEEC1EDn>
  4023d7:	48 8d 45 b0          	lea    -0x50(%rbp),%rax
  4023db:	be 00 00 00 00       	mov    $0x0,%esi
  4023e0:	48 89 c7             	mov    %rax,%rdi
  4023e3:	e8 68 0c 00 00       	callq  403050 <_ZN2vk13PipelineCacheC1EP17VkPipelineCache_T>
  4023e8:	48 8b 4d a0          	mov    -0x60(%rbp),%rcx
  4023ec:	48 8d 95 10 fe ff ff 	lea    -0x1f0(%rbp),%rdx
  4023f3:	48 8b 45 b0          	mov    -0x50(%rbp),%rax
  4023f7:	48 89 c6             	mov    %rax,%rsi
  4023fa:	bf 98 d5 60 00       	mov    $0x60d598,%edi
  4023ff:	e8 42 12 00 00       	callq  403646 <_ZNK2vk6Device22createGraphicsPipelineENS_13PipelineCacheERKNS_26GraphicsPipelineCreateInfoENS_8OptionalIKNS_19AllocationCallbacksEEE>
  402404:	90                   	nop
  402405:	48 8d 65 d8          	lea    -0x28(%rbp),%rsp
  402409:	5b                   	pop    %rbx
  40240a:	41 5c                	pop    %r12
  40240c:	41 5d                	pop    %r13
  40240e:	41 5e                	pop    %r14
  402410:	41 5f                	pop    %r15
  402412:	5d                   	pop    %rbp
  402413:	c3                   	retq   

0000000000402414 <main>:
  402414:	55                   	push   %rbp
  402415:	48 89 e5             	mov    %rsp,%rbp
  402418:	e8 81 f5 ff ff       	callq  40199e <_Z14CreateInstancev>
  40241d:	e8 ed f7 ff ff       	callq  401c0f <_Z12CreateDevicev>
  402422:	83 f0 01             	xor    $0x1,%eax
  402425:	84 c0                	test   %al,%al
  402427:	74 07                	je     402430 <main+0x1c>
  402429:	b8 ff ff ff ff       	mov    $0xffffffff,%eax
  40242e:	eb 0f                	jmp    40243f <main+0x2b>
  402430:	e8 14 fb ff ff       	callq  401f49 <_Z18CreateCommandQueuev>
  402435:	e8 8f fb ff ff       	callq  401fc9 <_Z14CreatePipelinev>
  40243a:	b8 00 00 00 00       	mov    $0x0,%eax
  40243f:	5d                   	pop    %rbp
  402440:	c3                   	retq   

0000000000402441 <_Z41__static_initialization_and_destruction_0ii>:
  402441:	55                   	push   %rbp
  402442:	48 89 e5             	mov    %rsp,%rbp
  402445:	48 83 ec 10          	sub    $0x10,%rsp
  402449:	89 7d fc             	mov    %edi,-0x4(%rbp)
  40244c:	89 75 f8             	mov    %esi,-0x8(%rbp)
  40244f:	83 7d fc 01          	cmpl   $0x1,-0x4(%rbp)
  402453:	75 31                	jne    402486 <_Z41__static_initialization_and_destruction_0ii+0x45>
  402455:	81 7d f8 ff ff 00 00 	cmpl   $0xffff,-0x8(%rbp)
  40245c:	75 28                	jne    402486 <_Z41__static_initialization_and_destruction_0ii+0x45>
  40245e:	bf 78 d5 60 00       	mov    $0x60d578,%edi
  402463:	e8 8a 14 00 00       	callq  4038f2 <_ZN2vk8InstanceC1Ev>
  402468:	bf 80 d5 60 00       	mov    $0x60d580,%edi
  40246d:	e8 96 13 00 00       	callq  403808 <_ZN2vk14PhysicalDeviceC1Ev>
  402472:	bf 90 d5 60 00       	mov    $0x60d590,%edi
  402477:	e8 66 0b 00 00       	callq  402fe2 <_ZN2vk11CommandPoolC1Ev>
  40247c:	bf 98 d5 60 00       	mov    $0x60d598,%edi
  402481:	e8 98 10 00 00       	callq  40351e <_ZN2vk6DeviceC1Ev>
  402486:	90                   	nop
  402487:	c9                   	leaveq 
  402488:	c3                   	retq   

0000000000402489 <_GLOBAL__sub_I_extensions>:
  402489:	55                   	push   %rbp
  40248a:	48 89 e5             	mov    %rsp,%rbp
  40248d:	be ff ff 00 00       	mov    $0xffff,%esi
  402492:	bf 01 00 00 00       	mov    $0x1,%edi
  402497:	e8 a5 ff ff ff       	callq  402441 <_Z41__static_initialization_and_destruction_0ii>
  40249c:	5d                   	pop    %rbp
  40249d:	c3                   	retq   

000000000040249e <_ZnwmPv>:
  40249e:	55                   	push   %rbp
  40249f:	48 89 e5             	mov    %rsp,%rbp
  4024a2:	48 89 7d f8          	mov    %rdi,-0x8(%rbp)
  4024a6:	48 89 75 f0          	mov    %rsi,-0x10(%rbp)
  4024aa:	48 8b 45 f0          	mov    -0x10(%rbp),%rax
  4024ae:	5d                   	pop    %rbp
  4024af:	c3                   	retq   

00000000004024b0 <_ZdlPvS_>:
  4024b0:	55                   	push   %rbp
  4024b1:	48 89 e5             	mov    %rsp,%rbp
  4024b4:	48 89 7d f8          	mov    %rdi,-0x8(%rbp)
  4024b8:	48 89 75 f0          	mov    %rsi,-0x10(%rbp)
  4024bc:	90                   	nop
  4024bd:	5d                   	pop    %rbp
  4024be:	c3                   	retq   
  4024bf:	90                   	nop

00000000004024c0 <_ZNSt10error_codeC1EiRKNSt3_V214error_categoryE>:
  4024c0:	55                   	push   %rbp
  4024c1:	48 89 e5             	mov    %rsp,%rbp
  4024c4:	48 89 7d f8          	mov    %rdi,-0x8(%rbp)
  4024c8:	89 75 f4             	mov    %esi,-0xc(%rbp)
  4024cb:	48 89 55 e8          	mov    %rdx,-0x18(%rbp)
  4024cf:	48 8b 45 f8          	mov    -0x8(%rbp),%rax
  4024d3:	8b 55 f4             	mov    -0xc(%rbp),%edx
  4024d6:	89 10                	mov    %edx,(%rax)
  4024d8:	48 8b 45 f8          	mov    -0x8(%rbp),%rax
  4024dc:	48 8b 55 e8          	mov    -0x18(%rbp),%rdx
  4024e0:	48 89 50 08          	mov    %rdx,0x8(%rax)
  4024e4:	90                   	nop
  4024e5:	5d                   	pop    %rbp
  4024e6:	c3                   	retq   
  4024e7:	90                   	nop

00000000004024e8 <_ZNKSt10error_code5valueEv>:
  4024e8:	55                   	push   %rbp
  4024e9:	48 89 e5             	mov    %rsp,%rbp
  4024ec:	48 89 7d f8          	mov    %rdi,-0x8(%rbp)
  4024f0:	48 8b 45 f8          	mov    -0x8(%rbp),%rax
  4024f4:	8b 00                	mov    (%rax),%eax
  4024f6:	5d                   	pop    %rbp
  4024f7:	c3                   	retq   

00000000004024f8 <_ZNKSt10error_code8categoryEv>:
  4024f8:	55                   	push   %rbp
  4024f9:	48 89 e5             	mov    %rsp,%rbp
  4024fc:	48 89 7d f8          	mov    %rdi,-0x8(%rbp)
  402500:	48 8b 45 f8          	mov    -0x8(%rbp),%rax
  402504:	48 8b 40 08          	mov    0x8(%rax),%rax
  402508:	5d                   	pop    %rbp
  402509:	c3                   	retq   

000000000040250a <_ZNKSt10error_code7messageB5cxx11Ev>:
  40250a:	55                   	push   %rbp
  40250b:	48 89 e5             	mov    %rsp,%rbp
  40250e:	41 54                	push   %r12
  402510:	53                   	push   %rbx
  402511:	48 83 ec 10          	sub    $0x10,%rsp
  402515:	48 89 7d e8          	mov    %rdi,-0x18(%rbp)
  402519:	48 89 75 e0          	mov    %rsi,-0x20(%rbp)
  40251d:	48 8b 45 e0          	mov    -0x20(%rbp),%rax
  402521:	48 89 c7             	mov    %rax,%rdi
  402524:	e8 cf ff ff ff       	callq  4024f8 <_ZNKSt10error_code8categoryEv>
  402529:	48 89 c3             	mov    %rax,%rbx
  40252c:	48 8b 03             	mov    (%rbx),%rax
  40252f:	48 83 c0 20          	add    $0x20,%rax
  402533:	4c 8b 20             	mov    (%rax),%r12
  402536:	48 8b 45 e0          	mov    -0x20(%rbp),%rax
  40253a:	48 89 c7             	mov    %rax,%rdi
  40253d:	e8 a6 ff ff ff       	callq  4024e8 <_ZNKSt10error_code5valueEv>
  402542:	89 c2                	mov    %eax,%edx
  402544:	48 8b 45 e8          	mov    -0x18(%rbp),%rax
  402548:	48 89 de             	mov    %rbx,%rsi
  40254b:	48 89 c7             	mov    %rax,%rdi
  40254e:	41 ff d4             	callq  *%r12
  402551:	48 8b 45 e8          	mov    -0x18(%rbp),%rax
  402555:	48 83 c4 10          	add    $0x10,%rsp
  402559:	5b                   	pop    %rbx
  40255a:	41 5c                	pop    %r12
  40255c:	5d                   	pop    %rbp
  40255d:	c3                   	retq   

000000000040255e <_ZNSt12system_errorC1ESt10error_codePKc>:
  40255e:	55                   	push   %rbp
  40255f:	48 89 e5             	mov    %rsp,%rbp
  402562:	53                   	push   %rbx
  402563:	48 81 ec 88 00 00 00 	sub    $0x88,%rsp
  40256a:	48 89 7d 88          	mov    %rdi,-0x78(%rbp)
  40256e:	89 f0                	mov    %esi,%eax
  402570:	48 89 d6             	mov    %rdx,%rsi
  402573:	48 89 f2             	mov    %rsi,%rdx
  402576:	48 89 85 70 ff ff ff 	mov    %rax,-0x90(%rbp)
  40257d:	48 89 95 78 ff ff ff 	mov    %rdx,-0x88(%rbp)
  402584:	48 89 4d 80          	mov    %rcx,-0x80(%rbp)
  402588:	48 8d 45 d0          	lea    -0x30(%rbp),%rax
  40258c:	48 8d 95 70 ff ff ff 	lea    -0x90(%rbp),%rdx
  402593:	48 89 d6             	mov    %rdx,%rsi
  402596:	48 89 c7             	mov    %rax,%rdi
  402599:	e8 6c ff ff ff       	callq  40250a <_ZNKSt10error_code7messageB5cxx11Ev>
  40259e:	48 8d 45 b0          	lea    -0x50(%rbp),%rax
  4025a2:	48 8d 55 d0          	lea    -0x30(%rbp),%rdx
  4025a6:	be 41 80 40 00       	mov    $0x408041,%esi
  4025ab:	48 89 c7             	mov    %rax,%rdi
  4025ae:	e8 a9 13 00 00       	callq  40395c <_ZStplIcSt11char_traitsIcESaIcEENSt7__cxx1112basic_stringIT_T0_T1_EEPKS5_OS8_>
  4025b3:	48 8d 45 90          	lea    -0x70(%rbp),%rax
  4025b7:	48 8d 55 b0          	lea    -0x50(%rbp),%rdx
  4025bb:	48 8b 4d 80          	mov    -0x80(%rbp),%rcx
  4025bf:	48 89 ce             	mov    %rcx,%rsi
  4025c2:	48 89 c7             	mov    %rax,%rdi
  4025c5:	e8 92 13 00 00       	callq  40395c <_ZStplIcSt11char_traitsIcESaIcEENSt7__cxx1112basic_stringIT_T0_T1_EEPKS5_OS8_>
  4025ca:	48 8b 45 88          	mov    -0x78(%rbp),%rax
  4025ce:	48 8d 55 90          	lea    -0x70(%rbp),%rdx
  4025d2:	48 89 d6             	mov    %rdx,%rsi
  4025d5:	48 89 c7             	mov    %rax,%rdi
  4025d8:	e8 c3 ef ff ff       	callq  4015a0 <_ZNSt13runtime_errorC2ERKNSt7__cxx1112basic_stringIcSt11char_traitsIcESaIcEEE@plt>
  4025dd:	48 8d 45 90          	lea    -0x70(%rbp),%rax
  4025e1:	48 89 c7             	mov    %rax,%rdi
  4025e4:	e8 c7 ee ff ff       	callq  4014b0 <_ZNSt7__cxx1112basic_stringIcSt11char_traitsIcESaIcEED1Ev@plt>
  4025e9:	48 8d 45 b0          	lea    -0x50(%rbp),%rax
  4025ed:	48 89 c7             	mov    %rax,%rdi
  4025f0:	e8 bb ee ff ff       	callq  4014b0 <_ZNSt7__cxx1112basic_stringIcSt11char_traitsIcESaIcEED1Ev@plt>
  4025f5:	48 8d 45 d0          	lea    -0x30(%rbp),%rax
  4025f9:	48 89 c7             	mov    %rax,%rdi
  4025fc:	e8 af ee ff ff       	callq  4014b0 <_ZNSt7__cxx1112basic_stringIcSt11char_traitsIcESaIcEED1Ev@plt>
  402601:	ba 58 d5 60 00       	mov    $0x60d558,%edx
  402606:	48 8b 45 88          	mov    -0x78(%rbp),%rax
  40260a:	48 89 10             	mov    %rdx,(%rax)
  40260d:	48 8b 4d 88          	mov    -0x78(%rbp),%rcx
  402611:	48 8b 85 70 ff ff ff 	mov    -0x90(%rbp),%rax
  402618:	48 8b 95 78 ff ff ff 	mov    -0x88(%rbp),%rdx
  40261f:	48 89 41 10          	mov    %rax,0x10(%rcx)
  402623:	48 89 51 18          	mov    %rdx,0x18(%rcx)
  402627:	eb 3c                	jmp    402665 <_ZNSt12system_errorC1ESt10error_codePKc+0x107>
  402629:	48 89 c3             	mov    %rax,%rbx
  40262c:	48 8d 45 90          	lea    -0x70(%rbp),%rax
  402630:	48 89 c7             	mov    %rax,%rdi
  402633:	e8 78 ee ff ff       	callq  4014b0 <_ZNSt7__cxx1112basic_stringIcSt11char_traitsIcESaIcEED1Ev@plt>
  402638:	eb 03                	jmp    40263d <_ZNSt12system_errorC1ESt10error_codePKc+0xdf>
  40263a:	48 89 c3             	mov    %rax,%rbx
  40263d:	48 8d 45 b0          	lea    -0x50(%rbp),%rax
  402641:	48 89 c7             	mov    %rax,%rdi
  402644:	e8 67 ee ff ff       	callq  4014b0 <_ZNSt7__cxx1112basic_stringIcSt11char_traitsIcESaIcEED1Ev@plt>
  402649:	eb 03                	jmp    40264e <_ZNSt12system_errorC1ESt10error_codePKc+0xf0>
  40264b:	48 89 c3             	mov    %rax,%rbx
  40264e:	48 8d 45 d0          	lea    -0x30(%rbp),%rax
  402652:	48 89 c7             	mov    %rax,%rdi
  402655:	e8 56 ee ff ff       	callq  4014b0 <_ZNSt7__cxx1112basic_stringIcSt11char_traitsIcESaIcEED1Ev@plt>
  40265a:	48 89 d8             	mov    %rbx,%rax
  40265d:	48 89 c7             	mov    %rax,%rdi
  402660:	e8 eb ef ff ff       	callq  401650 <_Unwind_Resume@plt>
  402665:	48 81 c4 88 00 00 00 	add    $0x88,%rsp
  40266c:	5b                   	pop    %rbx
  40266d:	5d                   	pop    %rbp
  40266e:	c3                   	retq   
  40266f:	90                   	nop

0000000000402670 <_ZNK2vk17ErrorCategoryImpl4nameEv>:
  402670:	55                   	push   %rbp
  402671:	48 89 e5             	mov    %rsp,%rbp
  402674:	48 89 7d f8          	mov    %rdi,-0x8(%rbp)
  402678:	b8 4c 80 40 00       	mov    $0x40804c,%eax
  40267d:	5d                   	pop    %rbp
  40267e:	c3                   	retq   
  40267f:	90                   	nop

0000000000402680 <_ZNK2vk17ErrorCategoryImpl7messageB5cxx11Ei>:
  402680:	55                   	push   %rbp
  402681:	48 89 e5             	mov    %rsp,%rbp
  402684:	53                   	push   %rbx
  402685:	48 83 ec 48          	sub    $0x48,%rsp
  402689:	48 89 7d c8          	mov    %rdi,-0x38(%rbp)
  40268d:	48 89 75 c0          	mov    %rsi,-0x40(%rbp)
  402691:	89 55 bc             	mov    %edx,-0x44(%rbp)
  402694:	8b 45 bc             	mov    -0x44(%rbp),%eax
  402697:	89 45 ec             	mov    %eax,-0x14(%rbp)
  40269a:	8b 45 ec             	mov    -0x14(%rbp),%eax
  40269d:	83 f8 f9             	cmp    $0xfffffff9,%eax
  4026a0:	0f 84 84 03 00 00    	je     402a2a <_ZNK2vk17ErrorCategoryImpl7messageB5cxx11Ei+0x3aa>
  4026a6:	83 f8 f9             	cmp    $0xfffffff9,%eax
  4026a9:	0f 8f 98 00 00 00    	jg     402747 <_ZNK2vk17ErrorCategoryImpl7messageB5cxx11Ei+0xc7>
  4026af:	3d ff 35 65 c4       	cmp    $0xc46535ff,%eax
  4026b4:	0f 84 ce 04 00 00    	je     402b88 <_ZNK2vk17ErrorCategoryImpl7messageB5cxx11Ei+0x508>
  4026ba:	3d ff 35 65 c4       	cmp    $0xc46535ff,%eax
  4026bf:	7f 48                	jg     402709 <_ZNK2vk17ErrorCategoryImpl7messageB5cxx11Ei+0x89>
  4026c1:	3d 07 0b 65 c4       	cmp    $0xc4650b07,%eax
  4026c6:	0f 84 84 05 00 00    	je     402c50 <_ZNK2vk17ErrorCategoryImpl7messageB5cxx11Ei+0x5d0>
  4026cc:	3d 07 0b 65 c4       	cmp    $0xc4650b07,%eax
  4026d1:	7f 1b                	jg     4026ee <_ZNK2vk17ErrorCategoryImpl7messageB5cxx11Ei+0x6e>
  4026d3:	3d 78 28 64 c4       	cmp    $0xc4642878,%eax
  4026d8:	0f 84 d6 05 00 00    	je     402cb4 <_ZNK2vk17ErrorCategoryImpl7messageB5cxx11Ei+0x634>
  4026de:	3d 20 07 65 c4       	cmp    $0xc4650720,%eax
  4026e3:	0f 84 99 05 00 00    	je     402c82 <_ZNK2vk17ErrorCategoryImpl7messageB5cxx11Ei+0x602>
  4026e9:	e9 f8 05 00 00       	jmpq   402ce6 <_ZNK2vk17ErrorCategoryImpl7messageB5cxx11Ei+0x666>
  4026ee:	3d 47 2a 65 c4       	cmp    $0xc4652a47,%eax
  4026f3:	0f 84 25 05 00 00    	je     402c1e <_ZNK2vk17ErrorCategoryImpl7messageB5cxx11Ei+0x59e>
  4026f9:	3d 14 32 65 c4       	cmp    $0xc4653214,%eax
  4026fe:	0f 84 e8 04 00 00    	je     402bec <_ZNK2vk17ErrorCategoryImpl7messageB5cxx11Ei+0x56c>
  402704:	e9 dd 05 00 00       	jmpq   402ce6 <_ZNK2vk17ErrorCategoryImpl7messageB5cxx11Ei+0x666>
  402709:	83 f8 f5             	cmp    $0xfffffff5,%eax
  40270c:	0f 84 e0 03 00 00    	je     402af2 <_ZNK2vk17ErrorCategoryImpl7messageB5cxx11Ei+0x472>
  402712:	83 f8 f5             	cmp    $0xfffffff5,%eax
  402715:	7f 19                	jg     402730 <_ZNK2vk17ErrorCategoryImpl7messageB5cxx11Ei+0xb0>
  402717:	3d 00 36 65 c4       	cmp    $0xc4653600,%eax
  40271c:	0f 84 34 04 00 00    	je     402b56 <_ZNK2vk17ErrorCategoryImpl7messageB5cxx11Ei+0x4d6>
  402722:	83 f8 f4             	cmp    $0xfffffff4,%eax
  402725:	0f 84 f9 03 00 00    	je     402b24 <_ZNK2vk17ErrorCategoryImpl7messageB5cxx11Ei+0x4a4>
  40272b:	e9 b6 05 00 00       	jmpq   402ce6 <_ZNK2vk17ErrorCategoryImpl7messageB5cxx11Ei+0x666>
  402730:	83 f8 f7             	cmp    $0xfffffff7,%eax
  402733:	0f 84 55 03 00 00    	je     402a8e <_ZNK2vk17ErrorCategoryImpl7messageB5cxx11Ei+0x40e>
  402739:	83 f8 f7             	cmp    $0xfffffff7,%eax
  40273c:	0f 8f 1a 03 00 00    	jg     402a5c <_ZNK2vk17ErrorCategoryImpl7messageB5cxx11Ei+0x3dc>
  402742:	e9 79 03 00 00       	jmpq   402ac0 <_ZNK2vk17ErrorCategoryImpl7messageB5cxx11Ei+0x440>
  402747:	85 c0                	test   %eax,%eax
  402749:	0f 84 83 00 00 00    	je     4027d2 <_ZNK2vk17ErrorCategoryImpl7messageB5cxx11Ei+0x152>
  40274f:	85 c0                	test   %eax,%eax
  402751:	7f 3c                	jg     40278f <_ZNK2vk17ErrorCategoryImpl7messageB5cxx11Ei+0x10f>
  402753:	83 f8 fc             	cmp    $0xfffffffc,%eax
  402756:	0f 84 38 02 00 00    	je     402994 <_ZNK2vk17ErrorCategoryImpl7messageB5cxx11Ei+0x314>
  40275c:	83 f8 fc             	cmp    $0xfffffffc,%eax
  40275f:	7f 17                	jg     402778 <_ZNK2vk17ErrorCategoryImpl7messageB5cxx11Ei+0xf8>
  402761:	83 f8 fa             	cmp    $0xfffffffa,%eax
  402764:	0f 84 8e 02 00 00    	je     4029f8 <_ZNK2vk17ErrorCategoryImpl7messageB5cxx11Ei+0x378>
  40276a:	83 f8 fb             	cmp    $0xfffffffb,%eax
  40276d:	0f 84 53 02 00 00    	je     4029c6 <_ZNK2vk17ErrorCategoryImpl7messageB5cxx11Ei+0x346>
  402773:	e9 6e 05 00 00       	jmpq   402ce6 <_ZNK2vk17ErrorCategoryImpl7messageB5cxx11Ei+0x666>
  402778:	83 f8 fe             	cmp    $0xfffffffe,%eax
  40277b:	0f 84 af 01 00 00    	je     402930 <_ZNK2vk17ErrorCategoryImpl7messageB5cxx11Ei+0x2b0>
  402781:	83 f8 fe             	cmp    $0xfffffffe,%eax
  402784:	0f 8f 74 01 00 00    	jg     4028fe <_ZNK2vk17ErrorCategoryImpl7messageB5cxx11Ei+0x27e>
  40278a:	e9 d3 01 00 00       	jmpq   402962 <_ZNK2vk17ErrorCategoryImpl7messageB5cxx11Ei+0x2e2>
  40278f:	83 f8 03             	cmp    $0x3,%eax
  402792:	0f 84 d0 00 00 00    	je     402868 <_ZNK2vk17ErrorCategoryImpl7messageB5cxx11Ei+0x1e8>
  402798:	83 f8 03             	cmp    $0x3,%eax
  40279b:	7f 13                	jg     4027b0 <_ZNK2vk17ErrorCategoryImpl7messageB5cxx11Ei+0x130>
  40279d:	83 f8 01             	cmp    $0x1,%eax
  4027a0:	74 62                	je     402804 <_ZNK2vk17ErrorCategoryImpl7messageB5cxx11Ei+0x184>
  4027a2:	83 f8 02             	cmp    $0x2,%eax
  4027a5:	0f 84 8b 00 00 00    	je     402836 <_ZNK2vk17ErrorCategoryImpl7messageB5cxx11Ei+0x1b6>
  4027ab:	e9 36 05 00 00       	jmpq   402ce6 <_ZNK2vk17ErrorCategoryImpl7messageB5cxx11Ei+0x666>
  4027b0:	83 f8 05             	cmp    $0x5,%eax
  4027b3:	0f 84 13 01 00 00    	je     4028cc <_ZNK2vk17ErrorCategoryImpl7messageB5cxx11Ei+0x24c>
  4027b9:	83 f8 05             	cmp    $0x5,%eax
  4027bc:	0f 8c d8 00 00 00    	jl     40289a <_ZNK2vk17ErrorCategoryImpl7messageB5cxx11Ei+0x21a>
  4027c2:	3d eb cd 9a 3b       	cmp    $0x3b9acdeb,%eax
  4027c7:	0f 84 ed 03 00 00    	je     402bba <_ZNK2vk17ErrorCategoryImpl7messageB5cxx11Ei+0x53a>
  4027cd:	e9 14 05 00 00       	jmpq   402ce6 <_ZNK2vk17ErrorCategoryImpl7messageB5cxx11Ei+0x666>
  4027d2:	48 8d 45 eb          	lea    -0x15(%rbp),%rax
  4027d6:	48 89 c7             	mov    %rax,%rdi
  4027d9:	e8 82 ee ff ff       	callq  401660 <_ZNSaIcEC1Ev@plt>
  4027de:	48 8d 55 eb          	lea    -0x15(%rbp),%rdx
  4027e2:	48 8b 45 c8          	mov    -0x38(%rbp),%rax
  4027e6:	be 57 80 40 00       	mov    $0x408057,%esi
  4027eb:	48 89 c7             	mov    %rax,%rdi
  4027ee:	e8 cd ed ff ff       	callq  4015c0 <_ZNSt7__cxx1112basic_stringIcSt11char_traitsIcESaIcEEC1EPKcRKS3_@plt>
  4027f3:	48 8d 45 eb          	lea    -0x15(%rbp),%rax
  4027f7:	48 89 c7             	mov    %rax,%rdi
  4027fa:	e8 71 ed ff ff       	callq  401570 <_ZNSaIcED1Ev@plt>
  4027ff:	e9 d2 07 00 00       	jmpq   402fd6 <_ZNK2vk17ErrorCategoryImpl7messageB5cxx11Ei+0x956>
  402804:	48 8d 45 ea          	lea    -0x16(%rbp),%rax
  402808:	48 89 c7             	mov    %rax,%rdi
  40280b:	e8 50 ee ff ff       	callq  401660 <_ZNSaIcEC1Ev@plt>
  402810:	48 8d 55 ea          	lea    -0x16(%rbp),%rdx
  402814:	48 8b 45 c8          	mov    -0x38(%rbp),%rax
  402818:	be 5f 80 40 00       	mov    $0x40805f,%esi
  40281d:	48 89 c7             	mov    %rax,%rdi
  402820:	e8 9b ed ff ff       	callq  4015c0 <_ZNSt7__cxx1112basic_stringIcSt11char_traitsIcESaIcEEC1EPKcRKS3_@plt>
  402825:	48 8d 45 ea          	lea    -0x16(%rbp),%rax
  402829:	48 89 c7             	mov    %rax,%rdi
  40282c:	e8 3f ed ff ff       	callq  401570 <_ZNSaIcED1Ev@plt>
  402831:	e9 a0 07 00 00       	jmpq   402fd6 <_ZNK2vk17ErrorCategoryImpl7messageB5cxx11Ei+0x956>
  402836:	48 8d 45 e9          	lea    -0x17(%rbp),%rax
  40283a:	48 89 c7             	mov    %rax,%rdi
  40283d:	e8 1e ee ff ff       	callq  401660 <_ZNSaIcEC1Ev@plt>
  402842:	48 8d 55 e9          	lea    -0x17(%rbp),%rdx
  402846:	48 8b 45 c8          	mov    -0x38(%rbp),%rax
  40284a:	be 68 80 40 00       	mov    $0x408068,%esi
  40284f:	48 89 c7             	mov    %rax,%rdi
  402852:	e8 69 ed ff ff       	callq  4015c0 <_ZNSt7__cxx1112basic_stringIcSt11char_traitsIcESaIcEEC1EPKcRKS3_@plt>
  402857:	48 8d 45 e9          	lea    -0x17(%rbp),%rax
  40285b:	48 89 c7             	mov    %rax,%rdi
  40285e:	e8 0d ed ff ff       	callq  401570 <_ZNSaIcED1Ev@plt>
  402863:	e9 6e 07 00 00       	jmpq   402fd6 <_ZNK2vk17ErrorCategoryImpl7messageB5cxx11Ei+0x956>
  402868:	48 8d 45 e8          	lea    -0x18(%rbp),%rax
  40286c:	48 89 c7             	mov    %rax,%rdi
  40286f:	e8 ec ed ff ff       	callq  401660 <_ZNSaIcEC1Ev@plt>
  402874:	48 8d 55 e8          	lea    -0x18(%rbp),%rdx
  402878:	48 8b 45 c8          	mov    -0x38(%rbp),%rax
  40287c:	be 70 80 40 00       	mov    $0x408070,%esi
  402881:	48 89 c7             	mov    %rax,%rdi
  402884:	e8 37 ed ff ff       	callq  4015c0 <_ZNSt7__cxx1112basic_stringIcSt11char_traitsIcESaIcEEC1EPKcRKS3_@plt>
  402889:	48 8d 45 e8          	lea    -0x18(%rbp),%rax
  40288d:	48 89 c7             	mov    %rax,%rdi
  402890:	e8 db ec ff ff       	callq  401570 <_ZNSaIcED1Ev@plt>
  402895:	e9 3c 07 00 00       	jmpq   402fd6 <_ZNK2vk17ErrorCategoryImpl7messageB5cxx11Ei+0x956>
  40289a:	48 8d 45 e7          	lea    -0x19(%rbp),%rax
  40289e:	48 89 c7             	mov    %rax,%rdi
  4028a1:	e8 ba ed ff ff       	callq  401660 <_ZNSaIcEC1Ev@plt>
  4028a6:	48 8d 55 e7          	lea    -0x19(%rbp),%rdx
  4028aa:	48 8b 45 c8          	mov    -0x38(%rbp),%rax
  4028ae:	be 79 80 40 00       	mov    $0x408079,%esi
  4028b3:	48 89 c7             	mov    %rax,%rdi
  4028b6:	e8 05 ed ff ff       	callq  4015c0 <_ZNSt7__cxx1112basic_stringIcSt11char_traitsIcESaIcEEC1EPKcRKS3_@plt>
  4028bb:	48 8d 45 e7          	lea    -0x19(%rbp),%rax
  4028bf:	48 89 c7             	mov    %rax,%rdi
  4028c2:	e8 a9 ec ff ff       	callq  401570 <_ZNSaIcED1Ev@plt>
  4028c7:	e9 0a 07 00 00       	jmpq   402fd6 <_ZNK2vk17ErrorCategoryImpl7messageB5cxx11Ei+0x956>
  4028cc:	48 8d 45 e6          	lea    -0x1a(%rbp),%rax
  4028d0:	48 89 c7             	mov    %rax,%rdi
  4028d3:	e8 88 ed ff ff       	callq  401660 <_ZNSaIcEC1Ev@plt>
  4028d8:	48 8d 55 e6          	lea    -0x1a(%rbp),%rdx
  4028dc:	48 8b 45 c8          	mov    -0x38(%rbp),%rax
  4028e0:	be 84 80 40 00       	mov    $0x408084,%esi
  4028e5:	48 89 c7             	mov    %rax,%rdi
  4028e8:	e8 d3 ec ff ff       	callq  4015c0 <_ZNSt7__cxx1112basic_stringIcSt11char_traitsIcESaIcEEC1EPKcRKS3_@plt>
  4028ed:	48 8d 45 e6          	lea    -0x1a(%rbp),%rax
  4028f1:	48 89 c7             	mov    %rax,%rdi
  4028f4:	e8 77 ec ff ff       	callq  401570 <_ZNSaIcED1Ev@plt>
  4028f9:	e9 d8 06 00 00       	jmpq   402fd6 <_ZNK2vk17ErrorCategoryImpl7messageB5cxx11Ei+0x956>
  4028fe:	48 8d 45 e5          	lea    -0x1b(%rbp),%rax
  402902:	48 89 c7             	mov    %rax,%rdi
  402905:	e8 56 ed ff ff       	callq  401660 <_ZNSaIcEC1Ev@plt>
  40290a:	48 8d 55 e5          	lea    -0x1b(%rbp),%rdx
  40290e:	48 8b 45 c8          	mov    -0x38(%rbp),%rax
  402912:	be 8f 80 40 00       	mov    $0x40808f,%esi
  402917:	48 89 c7             	mov    %rax,%rdi
  40291a:	e8 a1 ec ff ff       	callq  4015c0 <_ZNSt7__cxx1112basic_stringIcSt11char_traitsIcESaIcEEC1EPKcRKS3_@plt>
  40291f:	48 8d 45 e5          	lea    -0x1b(%rbp),%rax
  402923:	48 89 c7             	mov    %rax,%rdi
  402926:	e8 45 ec ff ff       	callq  401570 <_ZNSaIcED1Ev@plt>
  40292b:	e9 a6 06 00 00       	jmpq   402fd6 <_ZNK2vk17ErrorCategoryImpl7messageB5cxx11Ei+0x956>
  402930:	48 8d 45 e4          	lea    -0x1c(%rbp),%rax
  402934:	48 89 c7             	mov    %rax,%rdi
  402937:	e8 24 ed ff ff       	callq  401660 <_ZNSaIcEC1Ev@plt>
  40293c:	48 8d 55 e4          	lea    -0x1c(%rbp),%rdx
  402940:	48 8b 45 c8          	mov    -0x38(%rbp),%rax
  402944:	be a4 80 40 00       	mov    $0x4080a4,%esi
  402949:	48 89 c7             	mov    %rax,%rdi
  40294c:	e8 6f ec ff ff       	callq  4015c0 <_ZNSt7__cxx1112basic_stringIcSt11char_traitsIcESaIcEEC1EPKcRKS3_@plt>
  402951:	48 8d 45 e4          	lea    -0x1c(%rbp),%rax
  402955:	48 89 c7             	mov    %rax,%rdi
  402958:	e8 13 ec ff ff       	callq  401570 <_ZNSaIcED1Ev@plt>
  40295d:	e9 74 06 00 00       	jmpq   402fd6 <_ZNK2vk17ErrorCategoryImpl7messageB5cxx11Ei+0x956>
  402962:	48 8d 45 e3          	lea    -0x1d(%rbp),%rax
  402966:	48 89 c7             	mov    %rax,%rdi
  402969:	e8 f2 ec ff ff       	callq  401660 <_ZNSaIcEC1Ev@plt>
  40296e:	48 8d 55 e3          	lea    -0x1d(%rbp),%rdx
  402972:	48 8b 45 c8          	mov    -0x38(%rbp),%rax
  402976:	be bb 80 40 00       	mov    $0x4080bb,%esi
  40297b:	48 89 c7             	mov    %rax,%rdi
  40297e:	e8 3d ec ff ff       	callq  4015c0 <_ZNSt7__cxx1112basic_stringIcSt11char_traitsIcESaIcEEC1EPKcRKS3_@plt>
  402983:	48 8d 45 e3          	lea    -0x1d(%rbp),%rax
  402987:	48 89 c7             	mov    %rax,%rdi
  40298a:	e8 e1 eb ff ff       	callq  401570 <_ZNSaIcED1Ev@plt>
  40298f:	e9 42 06 00 00       	jmpq   402fd6 <_ZNK2vk17ErrorCategoryImpl7messageB5cxx11Ei+0x956>
  402994:	48 8d 45 e2          	lea    -0x1e(%rbp),%rax
  402998:	48 89 c7             	mov    %rax,%rdi
  40299b:	e8 c0 ec ff ff       	callq  401660 <_ZNSaIcEC1Ev@plt>
  4029a0:	48 8d 55 e2          	lea    -0x1e(%rbp),%rdx
  4029a4:	48 8b 45 c8          	mov    -0x38(%rbp),%rax
  4029a8:	be d5 80 40 00       	mov    $0x4080d5,%esi
  4029ad:	48 89 c7             	mov    %rax,%rdi
  4029b0:	e8 0b ec ff ff       	callq  4015c0 <_ZNSt7__cxx1112basic_stringIcSt11char_traitsIcESaIcEEC1EPKcRKS3_@plt>
  4029b5:	48 8d 45 e2          	lea    -0x1e(%rbp),%rax
  4029b9:	48 89 c7             	mov    %rax,%rdi
  4029bc:	e8 af eb ff ff       	callq  401570 <_ZNSaIcED1Ev@plt>
  4029c1:	e9 10 06 00 00       	jmpq   402fd6 <_ZNK2vk17ErrorCategoryImpl7messageB5cxx11Ei+0x956>
  4029c6:	48 8d 45 e1          	lea    -0x1f(%rbp),%rax
  4029ca:	48 89 c7             	mov    %rax,%rdi
  4029cd:	e8 8e ec ff ff       	callq  401660 <_ZNSaIcEC1Ev@plt>
  4029d2:	48 8d 55 e1          	lea    -0x1f(%rbp),%rdx
  4029d6:	48 8b 45 c8          	mov    -0x38(%rbp),%rax
  4029da:	be e5 80 40 00       	mov    $0x4080e5,%esi
  4029df:	48 89 c7             	mov    %rax,%rdi
  4029e2:	e8 d9 eb ff ff       	callq  4015c0 <_ZNSt7__cxx1112basic_stringIcSt11char_traitsIcESaIcEEC1EPKcRKS3_@plt>
  4029e7:	48 8d 45 e1          	lea    -0x1f(%rbp),%rax
  4029eb:	48 89 c7             	mov    %rax,%rdi
  4029ee:	e8 7d eb ff ff       	callq  401570 <_ZNSaIcED1Ev@plt>
  4029f3:	e9 de 05 00 00       	jmpq   402fd6 <_ZNK2vk17ErrorCategoryImpl7messageB5cxx11Ei+0x956>
  4029f8:	48 8d 45 e0          	lea    -0x20(%rbp),%rax
  4029fc:	48 89 c7             	mov    %rax,%rdi
  4029ff:	e8 5c ec ff ff       	callq  401660 <_ZNSaIcEC1Ev@plt>
  402a04:	48 8d 55 e0          	lea    -0x20(%rbp),%rdx
  402a08:	48 8b 45 c8          	mov    -0x38(%rbp),%rax
  402a0c:	be fa 80 40 00       	mov    $0x4080fa,%esi
  402a11:	48 89 c7             	mov    %rax,%rdi
  402a14:	e8 a7 eb ff ff       	callq  4015c0 <_ZNSt7__cxx1112basic_stringIcSt11char_traitsIcESaIcEEC1EPKcRKS3_@plt>
  402a19:	48 8d 45 e0          	lea    -0x20(%rbp),%rax
  402a1d:	48 89 c7             	mov    %rax,%rdi
  402a20:	e8 4b eb ff ff       	callq  401570 <_ZNSaIcED1Ev@plt>
  402a25:	e9 ac 05 00 00       	jmpq   402fd6 <_ZNK2vk17ErrorCategoryImpl7messageB5cxx11Ei+0x956>
  402a2a:	48 8d 45 df          	lea    -0x21(%rbp),%rax
  402a2e:	48 89 c7             	mov    %rax,%rdi
  402a31:	e8 2a ec ff ff       	callq  401660 <_ZNSaIcEC1Ev@plt>
  402a36:	48 8d 55 df          	lea    -0x21(%rbp),%rdx
  402a3a:	48 8b 45 c8          	mov    -0x38(%rbp),%rax
  402a3e:	be 0f 81 40 00       	mov    $0x40810f,%esi
  402a43:	48 89 c7             	mov    %rax,%rdi
  402a46:	e8 75 eb ff ff       	callq  4015c0 <_ZNSt7__cxx1112basic_stringIcSt11char_traitsIcESaIcEEC1EPKcRKS3_@plt>
  402a4b:	48 8d 45 df          	lea    -0x21(%rbp),%rax
  402a4f:	48 89 c7             	mov    %rax,%rdi
  402a52:	e8 19 eb ff ff       	callq  401570 <_ZNSaIcED1Ev@plt>
  402a57:	e9 7a 05 00 00       	jmpq   402fd6 <_ZNK2vk17ErrorCategoryImpl7messageB5cxx11Ei+0x956>
  402a5c:	48 8d 45 de          	lea    -0x22(%rbp),%rax
  402a60:	48 89 c7             	mov    %rax,%rdi
  402a63:	e8 f8 eb ff ff       	callq  401660 <_ZNSaIcEC1Ev@plt>
  402a68:	48 8d 55 de          	lea    -0x22(%rbp),%rdx
  402a6c:	48 8b 45 c8          	mov    -0x38(%rbp),%rax
  402a70:	be 28 81 40 00       	mov    $0x408128,%esi
  402a75:	48 89 c7             	mov    %rax,%rdi
  402a78:	e8 43 eb ff ff       	callq  4015c0 <_ZNSt7__cxx1112basic_stringIcSt11char_traitsIcESaIcEEC1EPKcRKS3_@plt>
  402a7d:	48 8d 45 de          	lea    -0x22(%rbp),%rax
  402a81:	48 89 c7             	mov    %rax,%rdi
  402a84:	e8 e7 ea ff ff       	callq  401570 <_ZNSaIcED1Ev@plt>
  402a89:	e9 48 05 00 00       	jmpq   402fd6 <_ZNK2vk17ErrorCategoryImpl7messageB5cxx11Ei+0x956>
  402a8e:	48 8d 45 dd          	lea    -0x23(%rbp),%rax
  402a92:	48 89 c7             	mov    %rax,%rdi
  402a95:	e8 c6 eb ff ff       	callq  401660 <_ZNSaIcEC1Ev@plt>
  402a9a:	48 8d 55 dd          	lea    -0x23(%rbp),%rdx
  402a9e:	48 8b 45 c8          	mov    -0x38(%rbp),%rax
  402aa2:	be 3f 81 40 00       	mov    $0x40813f,%esi
  402aa7:	48 89 c7             	mov    %rax,%rdi
  402aaa:	e8 11 eb ff ff       	callq  4015c0 <_ZNSt7__cxx1112basic_stringIcSt11char_traitsIcESaIcEEC1EPKcRKS3_@plt>
  402aaf:	48 8d 45 dd          	lea    -0x23(%rbp),%rax
  402ab3:	48 89 c7             	mov    %rax,%rdi
  402ab6:	e8 b5 ea ff ff       	callq  401570 <_ZNSaIcED1Ev@plt>
  402abb:	e9 16 05 00 00       	jmpq   402fd6 <_ZNK2vk17ErrorCategoryImpl7messageB5cxx11Ei+0x956>
  402ac0:	48 8d 45 dc          	lea    -0x24(%rbp),%rax
  402ac4:	48 89 c7             	mov    %rax,%rdi
  402ac7:	e8 94 eb ff ff       	callq  401660 <_ZNSaIcEC1Ev@plt>
  402acc:	48 8d 55 dc          	lea    -0x24(%rbp),%rdx
  402ad0:	48 8b 45 c8          	mov    -0x38(%rbp),%rax
  402ad4:	be 57 81 40 00       	mov    $0x408157,%esi
  402ad9:	48 89 c7             	mov    %rax,%rdi
  402adc:	e8 df ea ff ff       	callq  4015c0 <_ZNSt7__cxx1112basic_stringIcSt11char_traitsIcESaIcEEC1EPKcRKS3_@plt>
  402ae1:	48 8d 45 dc          	lea    -0x24(%rbp),%rax
  402ae5:	48 89 c7             	mov    %rax,%rdi
  402ae8:	e8 83 ea ff ff       	callq  401570 <_ZNSaIcED1Ev@plt>
  402aed:	e9 e4 04 00 00       	jmpq   402fd6 <_ZNK2vk17ErrorCategoryImpl7messageB5cxx11Ei+0x956>
  402af2:	48 8d 45 db          	lea    -0x25(%rbp),%rax
  402af6:	48 89 c7             	mov    %rax,%rdi
  402af9:	e8 62 eb ff ff       	callq  401660 <_ZNSaIcEC1Ev@plt>
  402afe:	48 8d 55 db          	lea    -0x25(%rbp),%rdx
  402b02:	48 8b 45 c8          	mov    -0x38(%rbp),%rax
  402b06:	be 6b 81 40 00       	mov    $0x40816b,%esi
  402b0b:	48 89 c7             	mov    %rax,%rdi
  402b0e:	e8 ad ea ff ff       	callq  4015c0 <_ZNSt7__cxx1112basic_stringIcSt11char_traitsIcESaIcEEC1EPKcRKS3_@plt>
  402b13:	48 8d 45 db          	lea    -0x25(%rbp),%rax
  402b17:	48 89 c7             	mov    %rax,%rdi
  402b1a:	e8 51 ea ff ff       	callq  401570 <_ZNSaIcED1Ev@plt>
  402b1f:	e9 b2 04 00 00       	jmpq   402fd6 <_ZNK2vk17ErrorCategoryImpl7messageB5cxx11Ei+0x956>
  402b24:	48 8d 45 da          	lea    -0x26(%rbp),%rax
  402b28:	48 89 c7             	mov    %rax,%rdi
  402b2b:	e8 30 eb ff ff       	callq  401660 <_ZNSaIcEC1Ev@plt>
  402b30:	48 8d 55 da          	lea    -0x26(%rbp),%rdx
  402b34:	48 8b 45 c8          	mov    -0x38(%rbp),%rax
  402b38:	be 83 81 40 00       	mov    $0x408183,%esi
  402b3d:	48 89 c7             	mov    %rax,%rdi
  402b40:	e8 7b ea ff ff       	callq  4015c0 <_ZNSt7__cxx1112basic_stringIcSt11char_traitsIcESaIcEEC1EPKcRKS3_@plt>
  402b45:	48 8d 45 da          	lea    -0x26(%rbp),%rax
  402b49:	48 89 c7             	mov    %rax,%rdi
  402b4c:	e8 1f ea ff ff       	callq  401570 <_ZNSaIcED1Ev@plt>
  402b51:	e9 80 04 00 00       	jmpq   402fd6 <_ZNK2vk17ErrorCategoryImpl7messageB5cxx11Ei+0x956>
  402b56:	48 8d 45 d9          	lea    -0x27(%rbp),%rax
  402b5a:	48 89 c7             	mov    %rax,%rdi
  402b5d:	e8 fe ea ff ff       	callq  401660 <_ZNSaIcEC1Ev@plt>
  402b62:	48 8d 55 d9          	lea    -0x27(%rbp),%rdx
  402b66:	48 8b 45 c8          	mov    -0x38(%rbp),%rax
  402b6a:	be 97 81 40 00       	mov    $0x408197,%esi
  402b6f:	48 89 c7             	mov    %rax,%rdi
  402b72:	e8 49 ea ff ff       	callq  4015c0 <_ZNSt7__cxx1112basic_stringIcSt11char_traitsIcESaIcEEC1EPKcRKS3_@plt>
  402b77:	48 8d 45 d9          	lea    -0x27(%rbp),%rax
  402b7b:	48 89 c7             	mov    %rax,%rdi
  402b7e:	e8 ed e9 ff ff       	callq  401570 <_ZNSaIcED1Ev@plt>
  402b83:	e9 4e 04 00 00       	jmpq   402fd6 <_ZNK2vk17ErrorCategoryImpl7messageB5cxx11Ei+0x956>
  402b88:	48 8d 45 d8          	lea    -0x28(%rbp),%rax
  402b8c:	48 89 c7             	mov    %rax,%rdi
  402b8f:	e8 cc ea ff ff       	callq  401660 <_ZNSaIcEC1Ev@plt>
  402b94:	48 8d 55 d8          	lea    -0x28(%rbp),%rdx
  402b98:	48 8b 45 c8          	mov    -0x38(%rbp),%rax
  402b9c:	be ab 81 40 00       	mov    $0x4081ab,%esi
  402ba1:	48 89 c7             	mov    %rax,%rdi
  402ba4:	e8 17 ea ff ff       	callq  4015c0 <_ZNSt7__cxx1112basic_stringIcSt11char_traitsIcESaIcEEC1EPKcRKS3_@plt>
  402ba9:	48 8d 45 d8          	lea    -0x28(%rbp),%rax
  402bad:	48 89 c7             	mov    %rax,%rdi
  402bb0:	e8 bb e9 ff ff       	callq  401570 <_ZNSaIcED1Ev@plt>
  402bb5:	e9 1c 04 00 00       	jmpq   402fd6 <_ZNK2vk17ErrorCategoryImpl7messageB5cxx11Ei+0x956>
  402bba:	48 8d 45 d7          	lea    -0x29(%rbp),%rax
  402bbe:	48 89 c7             	mov    %rax,%rdi
  402bc1:	e8 9a ea ff ff       	callq  401660 <_ZNSaIcEC1Ev@plt>
  402bc6:	48 8d 55 d7          	lea    -0x29(%rbp),%rdx
  402bca:	48 8b 45 c8          	mov    -0x38(%rbp),%rax
  402bce:	be c5 81 40 00       	mov    $0x4081c5,%esi
  402bd3:	48 89 c7             	mov    %rax,%rdi
  402bd6:	e8 e5 e9 ff ff       	callq  4015c0 <_ZNSt7__cxx1112basic_stringIcSt11char_traitsIcESaIcEEC1EPKcRKS3_@plt>
  402bdb:	48 8d 45 d7          	lea    -0x29(%rbp),%rax
  402bdf:	48 89 c7             	mov    %rax,%rdi
  402be2:	e8 89 e9 ff ff       	callq  401570 <_ZNSaIcED1Ev@plt>
  402be7:	e9 ea 03 00 00       	jmpq   402fd6 <_ZNK2vk17ErrorCategoryImpl7messageB5cxx11Ei+0x956>
  402bec:	48 8d 45 d6          	lea    -0x2a(%rbp),%rax
  402bf0:	48 89 c7             	mov    %rax,%rdi
  402bf3:	e8 68 ea ff ff       	callq  401660 <_ZNSaIcEC1Ev@plt>
  402bf8:	48 8d 55 d6          	lea    -0x2a(%rbp),%rdx
  402bfc:	48 8b 45 c8          	mov    -0x38(%rbp),%rax
  402c00:	be d3 81 40 00       	mov    $0x4081d3,%esi
  402c05:	48 89 c7             	mov    %rax,%rdi
  402c08:	e8 b3 e9 ff ff       	callq  4015c0 <_ZNSt7__cxx1112basic_stringIcSt11char_traitsIcESaIcEEC1EPKcRKS3_@plt>
  402c0d:	48 8d 45 d6          	lea    -0x2a(%rbp),%rax
  402c11:	48 89 c7             	mov    %rax,%rdi
  402c14:	e8 57 e9 ff ff       	callq  401570 <_ZNSaIcED1Ev@plt>
  402c19:	e9 b8 03 00 00       	jmpq   402fd6 <_ZNK2vk17ErrorCategoryImpl7messageB5cxx11Ei+0x956>
  402c1e:	48 8d 45 d5          	lea    -0x2b(%rbp),%rax
  402c22:	48 89 c7             	mov    %rax,%rdi
  402c25:	e8 36 ea ff ff       	callq  401660 <_ZNSaIcEC1Ev@plt>
  402c2a:	48 8d 55 d5          	lea    -0x2b(%rbp),%rdx
  402c2e:	48 8b 45 c8          	mov    -0x38(%rbp),%rax
  402c32:	be e5 81 40 00       	mov    $0x4081e5,%esi
  402c37:	48 89 c7             	mov    %rax,%rdi
  402c3a:	e8 81 e9 ff ff       	callq  4015c0 <_ZNSt7__cxx1112basic_stringIcSt11char_traitsIcESaIcEEC1EPKcRKS3_@plt>
  402c3f:	48 8d 45 d5          	lea    -0x2b(%rbp),%rax
  402c43:	48 89 c7             	mov    %rax,%rdi
  402c46:	e8 25 e9 ff ff       	callq  401570 <_ZNSaIcED1Ev@plt>
  402c4b:	e9 86 03 00 00       	jmpq   402fd6 <_ZNK2vk17ErrorCategoryImpl7messageB5cxx11Ei+0x956>
  402c50:	48 8d 45 d4          	lea    -0x2c(%rbp),%rax
  402c54:	48 89 c7             	mov    %rax,%rdi
  402c57:	e8 04 ea ff ff       	callq  401660 <_ZNSaIcEC1Ev@plt>
  402c5c:	48 8d 55 d4          	lea    -0x2c(%rbp),%rdx
  402c60:	48 8b 45 c8          	mov    -0x38(%rbp),%rax
  402c64:	be 01 82 40 00       	mov    $0x408201,%esi
  402c69:	48 89 c7             	mov    %rax,%rdi
  402c6c:	e8 4f e9 ff ff       	callq  4015c0 <_ZNSt7__cxx1112basic_stringIcSt11char_traitsIcESaIcEEC1EPKcRKS3_@plt>
  402c71:	48 8d 45 d4          	lea    -0x2c(%rbp),%rax
  402c75:	48 89 c7             	mov    %rax,%rdi
  402c78:	e8 f3 e8 ff ff       	callq  401570 <_ZNSaIcED1Ev@plt>
  402c7d:	e9 54 03 00 00       	jmpq   402fd6 <_ZNK2vk17ErrorCategoryImpl7messageB5cxx11Ei+0x956>
  402c82:	48 8d 45 d3          	lea    -0x2d(%rbp),%rax
  402c86:	48 89 c7             	mov    %rax,%rdi
  402c89:	e8 d2 e9 ff ff       	callq  401660 <_ZNSaIcEC1Ev@plt>
  402c8e:	48 8d 55 d3          	lea    -0x2d(%rbp),%rdx
  402c92:	48 8b 45 c8          	mov    -0x38(%rbp),%rax
  402c96:	be 1a 82 40 00       	mov    $0x40821a,%esi
  402c9b:	48 89 c7             	mov    %rax,%rdi
  402c9e:	e8 1d e9 ff ff       	callq  4015c0 <_ZNSt7__cxx1112basic_stringIcSt11char_traitsIcESaIcEEC1EPKcRKS3_@plt>
  402ca3:	48 8d 45 d3          	lea    -0x2d(%rbp),%rax
  402ca7:	48 89 c7             	mov    %rax,%rdi
  402caa:	e8 c1 e8 ff ff       	callq  401570 <_ZNSaIcED1Ev@plt>
  402caf:	e9 22 03 00 00       	jmpq   402fd6 <_ZNK2vk17ErrorCategoryImpl7messageB5cxx11Ei+0x956>
  402cb4:	48 8d 45 d2          	lea    -0x2e(%rbp),%rax
  402cb8:	48 89 c7             	mov    %rax,%rdi
  402cbb:	e8 a0 e9 ff ff       	callq  401660 <_ZNSaIcEC1Ev@plt>
  402cc0:	48 8d 55 d2          	lea    -0x2e(%rbp),%rdx
  402cc4:	48 8b 45 c8          	mov    -0x38(%rbp),%rax
  402cc8:	be 2f 82 40 00       	mov    $0x40822f,%esi
  402ccd:	48 89 c7             	mov    %rax,%rdi
  402cd0:	e8 eb e8 ff ff       	callq  4015c0 <_ZNSt7__cxx1112basic_stringIcSt11char_traitsIcESaIcEEC1EPKcRKS3_@plt>
  402cd5:	48 8d 45 d2          	lea    -0x2e(%rbp),%rax
  402cd9:	48 89 c7             	mov    %rax,%rdi
  402cdc:	e8 8f e8 ff ff       	callq  401570 <_ZNSaIcED1Ev@plt>
  402ce1:	e9 f0 02 00 00       	jmpq   402fd6 <_ZNK2vk17ErrorCategoryImpl7messageB5cxx11Ei+0x956>
  402ce6:	48 8d 45 d1          	lea    -0x2f(%rbp),%rax
  402cea:	48 89 c7             	mov    %rax,%rdi
  402ced:	e8 6e e9 ff ff       	callq  401660 <_ZNSaIcEC1Ev@plt>
  402cf2:	48 8d 55 d1          	lea    -0x2f(%rbp),%rdx
  402cf6:	48 8b 45 c8          	mov    -0x38(%rbp),%rax
  402cfa:	be 47 82 40 00       	mov    $0x408247,%esi
  402cff:	48 89 c7             	mov    %rax,%rdi
  402d02:	e8 b9 e8 ff ff       	callq  4015c0 <_ZNSt7__cxx1112basic_stringIcSt11char_traitsIcESaIcEEC1EPKcRKS3_@plt>
  402d07:	48 8d 45 d1          	lea    -0x2f(%rbp),%rax
  402d0b:	48 89 c7             	mov    %rax,%rdi
  402d0e:	e8 5d e8 ff ff       	callq  401570 <_ZNSaIcED1Ev@plt>
  402d13:	e9 be 02 00 00       	jmpq   402fd6 <_ZNK2vk17ErrorCategoryImpl7messageB5cxx11Ei+0x956>
  402d18:	48 89 c3             	mov    %rax,%rbx
  402d1b:	48 8d 45 eb          	lea    -0x15(%rbp),%rax
  402d1f:	48 89 c7             	mov    %rax,%rdi
  402d22:	e8 49 e8 ff ff       	callq  401570 <_ZNSaIcED1Ev@plt>
  402d27:	48 89 d8             	mov    %rbx,%rax
  402d2a:	48 89 c7             	mov    %rax,%rdi
  402d2d:	e8 1e e9 ff ff       	callq  401650 <_Unwind_Resume@plt>
  402d32:	48 89 c3             	mov    %rax,%rbx
  402d35:	48 8d 45 ea          	lea    -0x16(%rbp),%rax
  402d39:	48 89 c7             	mov    %rax,%rdi
  402d3c:	e8 2f e8 ff ff       	callq  401570 <_ZNSaIcED1Ev@plt>
  402d41:	48 89 d8             	mov    %rbx,%rax
  402d44:	48 89 c7             	mov    %rax,%rdi
  402d47:	e8 04 e9 ff ff       	callq  401650 <_Unwind_Resume@plt>
  402d4c:	48 89 c3             	mov    %rax,%rbx
  402d4f:	48 8d 45 e9          	lea    -0x17(%rbp),%rax
  402d53:	48 89 c7             	mov    %rax,%rdi
  402d56:	e8 15 e8 ff ff       	callq  401570 <_ZNSaIcED1Ev@plt>
  402d5b:	48 89 d8             	mov    %rbx,%rax
  402d5e:	48 89 c7             	mov    %rax,%rdi
  402d61:	e8 ea e8 ff ff       	callq  401650 <_Unwind_Resume@plt>
  402d66:	48 89 c3             	mov    %rax,%rbx
  402d69:	48 8d 45 e8          	lea    -0x18(%rbp),%rax
  402d6d:	48 89 c7             	mov    %rax,%rdi
  402d70:	e8 fb e7 ff ff       	callq  401570 <_ZNSaIcED1Ev@plt>
  402d75:	48 89 d8             	mov    %rbx,%rax
  402d78:	48 89 c7             	mov    %rax,%rdi
  402d7b:	e8 d0 e8 ff ff       	callq  401650 <_Unwind_Resume@plt>
  402d80:	48 89 c3             	mov    %rax,%rbx
  402d83:	48 8d 45 e7          	lea    -0x19(%rbp),%rax
  402d87:	48 89 c7             	mov    %rax,%rdi
  402d8a:	e8 e1 e7 ff ff       	callq  401570 <_ZNSaIcED1Ev@plt>
  402d8f:	48 89 d8             	mov    %rbx,%rax
  402d92:	48 89 c7             	mov    %rax,%rdi
  402d95:	e8 b6 e8 ff ff       	callq  401650 <_Unwind_Resume@plt>
  402d9a:	48 89 c3             	mov    %rax,%rbx
  402d9d:	48 8d 45 e6          	lea    -0x1a(%rbp),%rax
  402da1:	48 89 c7             	mov    %rax,%rdi
  402da4:	e8 c7 e7 ff ff       	callq  401570 <_ZNSaIcED1Ev@plt>
  402da9:	48 89 d8             	mov    %rbx,%rax
  402dac:	48 89 c7             	mov    %rax,%rdi
  402daf:	e8 9c e8 ff ff       	callq  401650 <_Unwind_Resume@plt>
  402db4:	48 89 c3             	mov    %rax,%rbx
  402db7:	48 8d 45 e5          	lea    -0x1b(%rbp),%rax
  402dbb:	48 89 c7             	mov    %rax,%rdi
  402dbe:	e8 ad e7 ff ff       	callq  401570 <_ZNSaIcED1Ev@plt>
  402dc3:	48 89 d8             	mov    %rbx,%rax
  402dc6:	48 89 c7             	mov    %rax,%rdi
  402dc9:	e8 82 e8 ff ff       	callq  401650 <_Unwind_Resume@plt>
  402dce:	48 89 c3             	mov    %rax,%rbx
  402dd1:	48 8d 45 e4          	lea    -0x1c(%rbp),%rax
  402dd5:	48 89 c7             	mov    %rax,%rdi
  402dd8:	e8 93 e7 ff ff       	callq  401570 <_ZNSaIcED1Ev@plt>
  402ddd:	48 89 d8             	mov    %rbx,%rax
  402de0:	48 89 c7             	mov    %rax,%rdi
  402de3:	e8 68 e8 ff ff       	callq  401650 <_Unwind_Resume@plt>
  402de8:	48 89 c3             	mov    %rax,%rbx
  402deb:	48 8d 45 e3          	lea    -0x1d(%rbp),%rax
  402def:	48 89 c7             	mov    %rax,%rdi
  402df2:	e8 79 e7 ff ff       	callq  401570 <_ZNSaIcED1Ev@plt>
  402df7:	48 89 d8             	mov    %rbx,%rax
  402dfa:	48 89 c7             	mov    %rax,%rdi
  402dfd:	e8 4e e8 ff ff       	callq  401650 <_Unwind_Resume@plt>
  402e02:	48 89 c3             	mov    %rax,%rbx
  402e05:	48 8d 45 e2          	lea    -0x1e(%rbp),%rax
  402e09:	48 89 c7             	mov    %rax,%rdi
  402e0c:	e8 5f e7 ff ff       	callq  401570 <_ZNSaIcED1Ev@plt>
  402e11:	48 89 d8             	mov    %rbx,%rax
  402e14:	48 89 c7             	mov    %rax,%rdi
  402e17:	e8 34 e8 ff ff       	callq  401650 <_Unwind_Resume@plt>
  402e1c:	48 89 c3             	mov    %rax,%rbx
  402e1f:	48 8d 45 e1          	lea    -0x1f(%rbp),%rax
  402e23:	48 89 c7             	mov    %rax,%rdi
  402e26:	e8 45 e7 ff ff       	callq  401570 <_ZNSaIcED1Ev@plt>
  402e2b:	48 89 d8             	mov    %rbx,%rax
  402e2e:	48 89 c7             	mov    %rax,%rdi
  402e31:	e8 1a e8 ff ff       	callq  401650 <_Unwind_Resume@plt>
  402e36:	48 89 c3             	mov    %rax,%rbx
  402e39:	48 8d 45 e0          	lea    -0x20(%rbp),%rax
  402e3d:	48 89 c7             	mov    %rax,%rdi
  402e40:	e8 2b e7 ff ff       	callq  401570 <_ZNSaIcED1Ev@plt>
  402e45:	48 89 d8             	mov    %rbx,%rax
  402e48:	48 89 c7             	mov    %rax,%rdi
  402e4b:	e8 00 e8 ff ff       	callq  401650 <_Unwind_Resume@plt>
  402e50:	48 89 c3             	mov    %rax,%rbx
  402e53:	48 8d 45 df          	lea    -0x21(%rbp),%rax
  402e57:	48 89 c7             	mov    %rax,%rdi
  402e5a:	e8 11 e7 ff ff       	callq  401570 <_ZNSaIcED1Ev@plt>
  402e5f:	48 89 d8             	mov    %rbx,%rax
  402e62:	48 89 c7             	mov    %rax,%rdi
  402e65:	e8 e6 e7 ff ff       	callq  401650 <_Unwind_Resume@plt>
  402e6a:	48 89 c3             	mov    %rax,%rbx
  402e6d:	48 8d 45 de          	lea    -0x22(%rbp),%rax
  402e71:	48 89 c7             	mov    %rax,%rdi
  402e74:	e8 f7 e6 ff ff       	callq  401570 <_ZNSaIcED1Ev@plt>
  402e79:	48 89 d8             	mov    %rbx,%rax
  402e7c:	48 89 c7             	mov    %rax,%rdi
  402e7f:	e8 cc e7 ff ff       	callq  401650 <_Unwind_Resume@plt>
  402e84:	48 89 c3             	mov    %rax,%rbx
  402e87:	48 8d 45 dd          	lea    -0x23(%rbp),%rax
  402e8b:	48 89 c7             	mov    %rax,%rdi
  402e8e:	e8 dd e6 ff ff       	callq  401570 <_ZNSaIcED1Ev@plt>
  402e93:	48 89 d8             	mov    %rbx,%rax
  402e96:	48 89 c7             	mov    %rax,%rdi
  402e99:	e8 b2 e7 ff ff       	callq  401650 <_Unwind_Resume@plt>
  402e9e:	48 89 c3             	mov    %rax,%rbx
  402ea1:	48 8d 45 dc          	lea    -0x24(%rbp),%rax
  402ea5:	48 89 c7             	mov    %rax,%rdi
  402ea8:	e8 c3 e6 ff ff       	callq  401570 <_ZNSaIcED1Ev@plt>
  402ead:	48 89 d8             	mov    %rbx,%rax
  402eb0:	48 89 c7             	mov    %rax,%rdi
  402eb3:	e8 98 e7 ff ff       	callq  401650 <_Unwind_Resume@plt>
  402eb8:	48 89 c3             	mov    %rax,%rbx
  402ebb:	48 8d 45 db          	lea    -0x25(%rbp),%rax
  402ebf:	48 89 c7             	mov    %rax,%rdi
  402ec2:	e8 a9 e6 ff ff       	callq  401570 <_ZNSaIcED1Ev@plt>
  402ec7:	48 89 d8             	mov    %rbx,%rax
  402eca:	48 89 c7             	mov    %rax,%rdi
  402ecd:	e8 7e e7 ff ff       	callq  401650 <_Unwind_Resume@plt>
  402ed2:	48 89 c3             	mov    %rax,%rbx
  402ed5:	48 8d 45 da          	lea    -0x26(%rbp),%rax
  402ed9:	48 89 c7             	mov    %rax,%rdi
  402edc:	e8 8f e6 ff ff       	callq  401570 <_ZNSaIcED1Ev@plt>
  402ee1:	48 89 d8             	mov    %rbx,%rax
  402ee4:	48 89 c7             	mov    %rax,%rdi
  402ee7:	e8 64 e7 ff ff       	callq  401650 <_Unwind_Resume@plt>
  402eec:	48 89 c3             	mov    %rax,%rbx
  402eef:	48 8d 45 d9          	lea    -0x27(%rbp),%rax
  402ef3:	48 89 c7             	mov    %rax,%rdi
  402ef6:	e8 75 e6 ff ff       	callq  401570 <_ZNSaIcED1Ev@plt>
  402efb:	48 89 d8             	mov    %rbx,%rax
  402efe:	48 89 c7             	mov    %rax,%rdi
  402f01:	e8 4a e7 ff ff       	callq  401650 <_Unwind_Resume@plt>
  402f06:	48 89 c3             	mov    %rax,%rbx
  402f09:	48 8d 45 d8          	lea    -0x28(%rbp),%rax
  402f0d:	48 89 c7             	mov    %rax,%rdi
  402f10:	e8 5b e6 ff ff       	callq  401570 <_ZNSaIcED1Ev@plt>
  402f15:	48 89 d8             	mov    %rbx,%rax
  402f18:	48 89 c7             	mov    %rax,%rdi
  402f1b:	e8 30 e7 ff ff       	callq  401650 <_Unwind_Resume@plt>
  402f20:	48 89 c3             	mov    %rax,%rbx
  402f23:	48 8d 45 d7          	lea    -0x29(%rbp),%rax
  402f27:	48 89 c7             	mov    %rax,%rdi
  402f2a:	e8 41 e6 ff ff       	callq  401570 <_ZNSaIcED1Ev@plt>
  402f2f:	48 89 d8             	mov    %rbx,%rax
  402f32:	48 89 c7             	mov    %rax,%rdi
  402f35:	e8 16 e7 ff ff       	callq  401650 <_Unwind_Resume@plt>
  402f3a:	48 89 c3             	mov    %rax,%rbx
  402f3d:	48 8d 45 d6          	lea    -0x2a(%rbp),%rax
  402f41:	48 89 c7             	mov    %rax,%rdi
  402f44:	e8 27 e6 ff ff       	callq  401570 <_ZNSaIcED1Ev@plt>
  402f49:	48 89 d8             	mov    %rbx,%rax
  402f4c:	48 89 c7             	mov    %rax,%rdi
  402f4f:	e8 fc e6 ff ff       	callq  401650 <_Unwind_Resume@plt>
  402f54:	48 89 c3             	mov    %rax,%rbx
  402f57:	48 8d 45 d5          	lea    -0x2b(%rbp),%rax
  402f5b:	48 89 c7             	mov    %rax,%rdi
  402f5e:	e8 0d e6 ff ff       	callq  401570 <_ZNSaIcED1Ev@plt>
  402f63:	48 89 d8             	mov    %rbx,%rax
  402f66:	48 89 c7             	mov    %rax,%rdi
  402f69:	e8 e2 e6 ff ff       	callq  401650 <_Unwind_Resume@plt>
  402f6e:	48 89 c3             	mov    %rax,%rbx
  402f71:	48 8d 45 d4          	lea    -0x2c(%rbp),%rax
  402f75:	48 89 c7             	mov    %rax,%rdi
  402f78:	e8 f3 e5 ff ff       	callq  401570 <_ZNSaIcED1Ev@plt>
  402f7d:	48 89 d8             	mov    %rbx,%rax
  402f80:	48 89 c7             	mov    %rax,%rdi
  402f83:	e8 c8 e6 ff ff       	callq  401650 <_Unwind_Resume@plt>
  402f88:	48 89 c3             	mov    %rax,%rbx
  402f8b:	48 8d 45 d3          	lea    -0x2d(%rbp),%rax
  402f8f:	48 89 c7             	mov    %rax,%rdi
  402f92:	e8 d9 e5 ff ff       	callq  401570 <_ZNSaIcED1Ev@plt>
  402f97:	48 89 d8             	mov    %rbx,%rax
  402f9a:	48 89 c7             	mov    %rax,%rdi
  402f9d:	e8 ae e6 ff ff       	callq  401650 <_Unwind_Resume@plt>
  402fa2:	48 89 c3             	mov    %rax,%rbx
  402fa5:	48 8d 45 d2          	lea    -0x2e(%rbp),%rax
  402fa9:	48 89 c7             	mov    %rax,%rdi
  402fac:	e8 bf e5 ff ff       	callq  401570 <_ZNSaIcED1Ev@plt>
  402fb1:	48 89 d8             	mov    %rbx,%rax
  402fb4:	48 89 c7             	mov    %rax,%rdi
  402fb7:	e8 94 e6 ff ff       	callq  401650 <_Unwind_Resume@plt>
  402fbc:	48 89 c3             	mov    %rax,%rbx
  402fbf:	48 8d 45 d1          	lea    -0x2f(%rbp),%rax
  402fc3:	48 89 c7             	mov    %rax,%rdi
  402fc6:	e8 a5 e5 ff ff       	callq  401570 <_ZNSaIcED1Ev@plt>
  402fcb:	48 89 d8             	mov    %rbx,%rax
  402fce:	48 89 c7             	mov    %rax,%rdi
  402fd1:	e8 7a e6 ff ff       	callq  401650 <_Unwind_Resume@plt>
  402fd6:	48 8b 45 c8          	mov    -0x38(%rbp),%rax
  402fda:	48 83 c4 48          	add    $0x48,%rsp
  402fde:	5b                   	pop    %rbx
  402fdf:	5d                   	pop    %rbp
  402fe0:	c3                   	retq   
  402fe1:	90                   	nop

0000000000402fe2 <_ZN2vk11CommandPoolC1Ev>:
  402fe2:	55                   	push   %rbp
  402fe3:	48 89 e5             	mov    %rsp,%rbp
  402fe6:	48 89 7d f8          	mov    %rdi,-0x8(%rbp)
  402fea:	48 8b 45 f8          	mov    -0x8(%rbp),%rax
  402fee:	48 c7 00 00 00 00 00 	movq   $0x0,(%rax)
  402ff5:	90                   	nop
  402ff6:	5d                   	pop    %rbp
  402ff7:	c3                   	retq   

0000000000402ff8 <_ZN2vk12ShaderModuleC1Ev>:
  402ff8:	55                   	push   %rbp
  402ff9:	48 89 e5             	mov    %rsp,%rbp
  402ffc:	48 89 7d f8          	mov    %rdi,-0x8(%rbp)
  403000:	48 8b 45 f8          	mov    -0x8(%rbp),%rax
  403004:	48 c7 00 00 00 00 00 	movq   $0x0,(%rax)
  40300b:	90                   	nop
  40300c:	5d                   	pop    %rbp
  40300d:	c3                   	retq   

000000000040300e <_ZN2vk8PipelineC1Ev>:
  40300e:	55                   	push   %rbp
  40300f:	48 89 e5             	mov    %rsp,%rbp
  403012:	48 89 7d f8          	mov    %rdi,-0x8(%rbp)
  403016:	48 8b 45 f8          	mov    -0x8(%rbp),%rax
  40301a:	48 c7 00 00 00 00 00 	movq   $0x0,(%rax)
  403021:	90                   	nop
  403022:	5d                   	pop    %rbp
  403023:	c3                   	retq   

0000000000403024 <_ZN2vk14PipelineLayoutC1Ev>:
  403024:	55                   	push   %rbp
  403025:	48 89 e5             	mov    %rsp,%rbp
  403028:	48 89 7d f8          	mov    %rdi,-0x8(%rbp)
  40302c:	48 8b 45 f8          	mov    -0x8(%rbp),%rax
  403030:	48 c7 00 00 00 00 00 	movq   $0x0,(%rax)
  403037:	90                   	nop
  403038:	5d                   	pop    %rbp
  403039:	c3                   	retq   

000000000040303a <_ZN2vk10RenderPassC1Ev>:
  40303a:	55                   	push   %rbp
  40303b:	48 89 e5             	mov    %rsp,%rbp
  40303e:	48 89 7d f8          	mov    %rdi,-0x8(%rbp)
  403042:	48 8b 45 f8          	mov    -0x8(%rbp),%rax
  403046:	48 c7 00 00 00 00 00 	movq   $0x0,(%rax)
  40304d:	90                   	nop
  40304e:	5d                   	pop    %rbp
  40304f:	c3                   	retq   

0000000000403050 <_ZN2vk13PipelineCacheC1EP17VkPipelineCache_T>:
  403050:	55                   	push   %rbp
  403051:	48 89 e5             	mov    %rsp,%rbp
  403054:	48 89 7d f8          	mov    %rdi,-0x8(%rbp)
  403058:	48 89 75 f0          	mov    %rsi,-0x10(%rbp)
  40305c:	48 8b 45 f8          	mov    -0x8(%rbp),%rax
  403060:	48 8b 55 f0          	mov    -0x10(%rbp),%rdx
  403064:	48 89 10             	mov    %rdx,(%rax)
  403067:	90                   	nop
  403068:	5d                   	pop    %rbp
  403069:	c3                   	retq   

000000000040306a <_ZNK2vk13PipelineCachecvP17VkPipelineCache_TEv>:
  40306a:	55                   	push   %rbp
  40306b:	48 89 e5             	mov    %rsp,%rbp
  40306e:	48 89 7d f8          	mov    %rdi,-0x8(%rbp)
  403072:	48 8b 45 f8          	mov    -0x8(%rbp),%rax
  403076:	48 8b 00             	mov    (%rax),%rax
  403079:	5d                   	pop    %rbp
  40307a:	c3                   	retq   
  40307b:	90                   	nop

000000000040307c <_ZN2vk8Extent3DC1Ejjj>:
  40307c:	55                   	push   %rbp
  40307d:	48 89 e5             	mov    %rsp,%rbp
  403080:	48 89 7d f8          	mov    %rdi,-0x8(%rbp)
  403084:	89 75 f4             	mov    %esi,-0xc(%rbp)
  403087:	89 55 f0             	mov    %edx,-0x10(%rbp)
  40308a:	89 4d ec             	mov    %ecx,-0x14(%rbp)
  40308d:	48 8b 45 f8          	mov    -0x8(%rbp),%rax
  403091:	8b 55 f4             	mov    -0xc(%rbp),%edx
  403094:	89 10                	mov    %edx,(%rax)
  403096:	48 8b 45 f8          	mov    -0x8(%rbp),%rax
  40309a:	8b 55 f0             	mov    -0x10(%rbp),%edx
  40309d:	89 50 04             	mov    %edx,0x4(%rax)
  4030a0:	48 8b 45 f8          	mov    -0x8(%rbp),%rax
  4030a4:	8b 55 ec             	mov    -0x14(%rbp),%edx
  4030a7:	89 50 08             	mov    %edx,0x8(%rax)
  4030aa:	90                   	nop
  4030ab:	5d                   	pop    %rbp
  4030ac:	c3                   	retq   
  4030ad:	90                   	nop

00000000004030ae <_ZN2vk21DeviceQueueCreateInfoC1ENS_5FlagsINS_25DeviceQueueCreateFlagBitsEjEEjjPKf>:
  4030ae:	55                   	push   %rbp
  4030af:	48 89 e5             	mov    %rsp,%rbp
  4030b2:	48 83 ec 20          	sub    $0x20,%rsp
  4030b6:	48 89 7d f8          	mov    %rdi,-0x8(%rbp)
  4030ba:	48 89 75 f0          	mov    %rsi,-0x10(%rbp)
  4030be:	89 55 ec             	mov    %edx,-0x14(%rbp)
  4030c1:	89 4d e8             	mov    %ecx,-0x18(%rbp)
  4030c4:	4c 89 45 e0          	mov    %r8,-0x20(%rbp)
  4030c8:	48 8b 45 f8          	mov    -0x8(%rbp),%rax
  4030cc:	c7 00 02 00 00 00    	movl   $0x2,(%rax)
  4030d2:	48 8b 45 f8          	mov    -0x8(%rbp),%rax
  4030d6:	48 c7 40 08 00 00 00 	movq   $0x0,0x8(%rax)
  4030dd:	00 
  4030de:	48 8b 45 f8          	mov    -0x8(%rbp),%rax
  4030e2:	48 8d 50 10          	lea    0x10(%rax),%rdx
  4030e6:	48 8b 45 f0          	mov    -0x10(%rbp),%rax
  4030ea:	48 89 c6             	mov    %rax,%rsi
  4030ed:	48 89 d7             	mov    %rdx,%rdi
  4030f0:	e8 87 09 00 00       	callq  403a7c <_ZN2vk5FlagsINS_25DeviceQueueCreateFlagBitsEjEC1ERKS2_>
  4030f5:	48 8b 45 f8          	mov    -0x8(%rbp),%rax
  4030f9:	8b 55 ec             	mov    -0x14(%rbp),%edx
  4030fc:	89 50 14             	mov    %edx,0x14(%rax)
  4030ff:	48 8b 45 f8          	mov    -0x8(%rbp),%rax
  403103:	8b 55 e8             	mov    -0x18(%rbp),%edx
  403106:	89 50 18             	mov    %edx,0x18(%rax)
  403109:	48 8b 45 f8          	mov    -0x8(%rbp),%rax
  40310d:	48 8b 55 e0          	mov    -0x20(%rbp),%rdx
  403111:	48 89 50 20          	mov    %rdx,0x20(%rax)
  403115:	90                   	nop
  403116:	c9                   	leaveq 
  403117:	c3                   	retq   

0000000000403118 <_ZN2vk16DeviceCreateInfoC1ENS_5FlagsINS_20DeviceCreateFlagBitsEjEEjPKNS_21DeviceQueueCreateInfoEjPKPKcjSA_PKNS_22PhysicalDeviceFeaturesE>:
  403118:	55                   	push   %rbp
  403119:	48 89 e5             	mov    %rsp,%rbp
  40311c:	48 83 ec 30          	sub    $0x30,%rsp
  403120:	48 89 7d f8          	mov    %rdi,-0x8(%rbp)
  403124:	48 89 75 f0          	mov    %rsi,-0x10(%rbp)
  403128:	89 55 ec             	mov    %edx,-0x14(%rbp)
  40312b:	48 89 4d e0          	mov    %rcx,-0x20(%rbp)
  40312f:	44 89 45 e8          	mov    %r8d,-0x18(%rbp)
  403133:	4c 89 4d d8          	mov    %r9,-0x28(%rbp)
  403137:	48 8b 45 f8          	mov    -0x8(%rbp),%rax
  40313b:	c7 00 03 00 00 00    	movl   $0x3,(%rax)
  403141:	48 8b 45 f8          	mov    -0x8(%rbp),%rax
  403145:	48 c7 40 08 00 00 00 	movq   $0x0,0x8(%rax)
  40314c:	00 
  40314d:	48 8b 45 f8          	mov    -0x8(%rbp),%rax
  403151:	48 8d 50 10          	lea    0x10(%rax),%rdx
  403155:	48 8b 45 f0          	mov    -0x10(%rbp),%rax
  403159:	48 89 c6             	mov    %rax,%rsi
  40315c:	48 89 d7             	mov    %rdx,%rdi
  40315f:	e8 fc 08 00 00       	callq  403a60 <_ZN2vk5FlagsINS_20DeviceCreateFlagBitsEjEC1ERKS2_>
  403164:	48 8b 45 f8          	mov    -0x8(%rbp),%rax
  403168:	8b 55 ec             	mov    -0x14(%rbp),%edx
  40316b:	89 50 14             	mov    %edx,0x14(%rax)
  40316e:	48 8b 45 f8          	mov    -0x8(%rbp),%rax
  403172:	48 8b 55 e0          	mov    -0x20(%rbp),%rdx
  403176:	48 89 50 18          	mov    %rdx,0x18(%rax)
  40317a:	48 8b 45 f8          	mov    -0x8(%rbp),%rax
  40317e:	8b 55 e8             	mov    -0x18(%rbp),%edx
  403181:	89 50 20             	mov    %edx,0x20(%rax)
  403184:	48 8b 45 f8          	mov    -0x8(%rbp),%rax
  403188:	48 8b 55 d8          	mov    -0x28(%rbp),%rdx
  40318c:	48 89 50 28          	mov    %rdx,0x28(%rax)
  403190:	48 8b 45 f8          	mov    -0x8(%rbp),%rax
  403194:	8b 55 10             	mov    0x10(%rbp),%edx
  403197:	89 50 30             	mov    %edx,0x30(%rax)
  40319a:	48 8b 45 f8          	mov    -0x8(%rbp),%rax
  40319e:	48 8b 55 18          	mov    0x18(%rbp),%rdx
  4031a2:	48 89 50 38          	mov    %rdx,0x38(%rax)
  4031a6:	48 8b 45 f8          	mov    -0x8(%rbp),%rax
  4031aa:	48 8b 55 20          	mov    0x20(%rbp),%rdx
  4031ae:	48 89 50 40          	mov    %rdx,0x40(%rax)
  4031b2:	90                   	nop
  4031b3:	c9                   	leaveq 
  4031b4:	c3                   	retq   
  4031b5:	90                   	nop

00000000004031b6 <_ZN2vk18InstanceCreateInfoC1ENS_5FlagsINS_22InstanceCreateFlagBitsEjEEPKNS_15ApplicationInfoEjPKPKcjSA_>:
  4031b6:	55                   	push   %rbp
  4031b7:	48 89 e5             	mov    %rsp,%rbp
  4031ba:	48 83 ec 30          	sub    $0x30,%rsp
  4031be:	48 89 7d f8          	mov    %rdi,-0x8(%rbp)
  4031c2:	48 89 75 f0          	mov    %rsi,-0x10(%rbp)
  4031c6:	48 89 55 e8          	mov    %rdx,-0x18(%rbp)
  4031ca:	89 4d e4             	mov    %ecx,-0x1c(%rbp)
  4031cd:	4c 89 45 d8          	mov    %r8,-0x28(%rbp)
  4031d1:	44 89 4d e0          	mov    %r9d,-0x20(%rbp)
  4031d5:	48 8b 45 f8          	mov    -0x8(%rbp),%rax
  4031d9:	c7 00 01 00 00 00    	movl   $0x1,(%rax)
  4031df:	48 8b 45 f8          	mov    -0x8(%rbp),%rax
  4031e3:	48 c7 40 08 00 00 00 	movq   $0x0,0x8(%rax)
  4031ea:	00 
  4031eb:	48 8b 45 f8          	mov    -0x8(%rbp),%rax
  4031ef:	48 8d 50 10          	lea    0x10(%rax),%rdx
  4031f3:	48 8b 45 f0          	mov    -0x10(%rbp),%rax
  4031f7:	48 89 c6             	mov    %rax,%rsi
  4031fa:	48 89 d7             	mov    %rdx,%rdi
  4031fd:	e8 42 08 00 00       	callq  403a44 <_ZN2vk5FlagsINS_22InstanceCreateFlagBitsEjEC1ERKS2_>
  403202:	48 8b 45 f8          	mov    -0x8(%rbp),%rax
  403206:	48 8b 55 e8          	mov    -0x18(%rbp),%rdx
  40320a:	48 89 50 18          	mov    %rdx,0x18(%rax)
  40320e:	48 8b 45 f8          	mov    -0x8(%rbp),%rax
  403212:	8b 55 e4             	mov    -0x1c(%rbp),%edx
  403215:	89 50 20             	mov    %edx,0x20(%rax)
  403218:	48 8b 45 f8          	mov    -0x8(%rbp),%rax
  40321c:	48 8b 55 d8          	mov    -0x28(%rbp),%rdx
  403220:	48 89 50 28          	mov    %rdx,0x28(%rax)
  403224:	48 8b 45 f8          	mov    -0x8(%rbp),%rax
  403228:	8b 55 e0             	mov    -0x20(%rbp),%edx
  40322b:	89 50 30             	mov    %edx,0x30(%rax)
  40322e:	48 8b 45 f8          	mov    -0x8(%rbp),%rax
  403232:	48 8b 55 10          	mov    0x10(%rbp),%rdx
  403236:	48 89 50 38          	mov    %rdx,0x38(%rax)
  40323a:	90                   	nop
  40323b:	c9                   	leaveq 
  40323c:	c3                   	retq   
  40323d:	90                   	nop

000000000040323e <_ZN2vk22ShaderModuleCreateInfoC1ENS_5FlagsINS_26ShaderModuleCreateFlagBitsEjEEmPKj>:
  40323e:	55                   	push   %rbp
  40323f:	48 89 e5             	mov    %rsp,%rbp
  403242:	48 83 ec 20          	sub    $0x20,%rsp
  403246:	48 89 7d f8          	mov    %rdi,-0x8(%rbp)
  40324a:	48 89 75 f0          	mov    %rsi,-0x10(%rbp)
  40324e:	48 89 55 e8          	mov    %rdx,-0x18(%rbp)
  403252:	48 89 4d e0          	mov    %rcx,-0x20(%rbp)
  403256:	48 8b 45 f8          	mov    -0x8(%rbp),%rax
  40325a:	c7 00 10 00 00 00    	movl   $0x10,(%rax)
  403260:	48 8b 45 f8          	mov    -0x8(%rbp),%rax
  403264:	48 c7 40 08 00 00 00 	movq   $0x0,0x8(%rax)
  40326b:	00 
  40326c:	48 8b 45 f8          	mov    -0x8(%rbp),%rax
  403270:	48 8d 50 10          	lea    0x10(%rax),%rdx
  403274:	48 8b 45 f0          	mov    -0x10(%rbp),%rax
  403278:	48 89 c6             	mov    %rax,%rsi
  40327b:	48 89 d7             	mov    %rdx,%rdi
  40327e:	e8 15 08 00 00       	callq  403a98 <_ZN2vk5FlagsINS_26ShaderModuleCreateFlagBitsEjEC1ERKS2_>
  403283:	48 8b 45 f8          	mov    -0x8(%rbp),%rax
  403287:	48 8b 55 e8          	mov    -0x18(%rbp),%rdx
  40328b:	48 89 50 18          	mov    %rdx,0x18(%rax)
  40328f:	48 8b 45 f8          	mov    -0x8(%rbp),%rax
  403293:	48 8b 55 e0          	mov    -0x20(%rbp),%rdx
  403297:	48 89 50 20          	mov    %rdx,0x20(%rax)
  40329b:	90                   	nop
  40329c:	c9                   	leaveq 
  40329d:	c3                   	retq   

000000000040329e <_ZN2vk29PipelineShaderStageCreateInfoC1ENS_5FlagsINS_33PipelineShaderStageCreateFlagBitsEjEENS_19ShaderStageFlagBitsENS_12ShaderModuleEPKcPKNS_18SpecializationInfoE>:
  40329e:	55                   	push   %rbp
  40329f:	48 89 e5             	mov    %rsp,%rbp
  4032a2:	48 83 ec 30          	sub    $0x30,%rsp
  4032a6:	48 89 7d f8          	mov    %rdi,-0x8(%rbp)
  4032aa:	48 89 75 f0          	mov    %rsi,-0x10(%rbp)
  4032ae:	89 55 ec             	mov    %edx,-0x14(%rbp)
  4032b1:	48 89 4d e0          	mov    %rcx,-0x20(%rbp)
  4032b5:	4c 89 45 d8          	mov    %r8,-0x28(%rbp)
  4032b9:	4c 89 4d d0          	mov    %r9,-0x30(%rbp)
  4032bd:	48 8b 45 f8          	mov    -0x8(%rbp),%rax
  4032c1:	c7 00 12 00 00 00    	movl   $0x12,(%rax)
  4032c7:	48 8b 45 f8          	mov    -0x8(%rbp),%rax
  4032cb:	48 c7 40 08 00 00 00 	movq   $0x0,0x8(%rax)
  4032d2:	00 
  4032d3:	48 8b 45 f8          	mov    -0x8(%rbp),%rax
  4032d7:	48 8d 50 10          	lea    0x10(%rax),%rdx
  4032db:	48 8b 45 f0          	mov    -0x10(%rbp),%rax
  4032df:	48 89 c6             	mov    %rax,%rsi
  4032e2:	48 89 d7             	mov    %rdx,%rdi
  4032e5:	e8 3e 07 00 00       	callq  403a28 <_ZN2vk5FlagsINS_33PipelineShaderStageCreateFlagBitsEjEC1ERKS2_>
  4032ea:	48 8b 45 f8          	mov    -0x8(%rbp),%rax
  4032ee:	8b 55 ec             	mov    -0x14(%rbp),%edx
  4032f1:	89 50 14             	mov    %edx,0x14(%rax)
  4032f4:	48 8b 45 f8          	mov    -0x8(%rbp),%rax
  4032f8:	48 8b 55 e0          	mov    -0x20(%rbp),%rdx
  4032fc:	48 89 50 18          	mov    %rdx,0x18(%rax)
  403300:	48 8b 45 f8          	mov    -0x8(%rbp),%rax
  403304:	48 8b 55 d8          	mov    -0x28(%rbp),%rdx
  403308:	48 89 50 20          	mov    %rdx,0x20(%rax)
  40330c:	48 8b 45 f8          	mov    -0x8(%rbp),%rax
  403310:	48 8b 55 d0          	mov    -0x30(%rbp),%rdx
  403314:	48 89 50 28          	mov    %rdx,0x28(%rax)
  403318:	90                   	nop
  403319:	c9                   	leaveq 
  40331a:	c3                   	retq   
  40331b:	90                   	nop

000000000040331c <_ZN2vk21CommandPoolCreateInfoC1ENS_5FlagsINS_25CommandPoolCreateFlagBitsEjEEj>:
  40331c:	55                   	push   %rbp
  40331d:	48 89 e5             	mov    %rsp,%rbp
  403320:	48 83 ec 20          	sub    $0x20,%rsp
  403324:	48 89 7d f8          	mov    %rdi,-0x8(%rbp)
  403328:	48 89 75 f0          	mov    %rsi,-0x10(%rbp)
  40332c:	89 55 ec             	mov    %edx,-0x14(%rbp)
  40332f:	48 8b 45 f8          	mov    -0x8(%rbp),%rax
  403333:	c7 00 27 00 00 00    	movl   $0x27,(%rax)
  403339:	48 8b 45 f8          	mov    -0x8(%rbp),%rax
  40333d:	48 c7 40 08 00 00 00 	movq   $0x0,0x8(%rax)
  403344:	00 
  403345:	48 8b 45 f8          	mov    -0x8(%rbp),%rax
  403349:	48 8d 50 10          	lea    0x10(%rax),%rdx
  40334d:	48 8b 45 f0          	mov    -0x10(%rbp),%rax
  403351:	48 89 c6             	mov    %rax,%rsi
  403354:	48 89 d7             	mov    %rdx,%rdi
  403357:	e8 2c 08 00 00       	callq  403b88 <_ZN2vk5FlagsINS_25CommandPoolCreateFlagBitsEjEC1ERKS2_>
  40335c:	48 8b 45 f8          	mov    -0x8(%rbp),%rax
  403360:	8b 55 ec             	mov    -0x14(%rbp),%edx
  403363:	89 50 14             	mov    %edx,0x14(%rax)
  403366:	90                   	nop
  403367:	c9                   	leaveq 
  403368:	c3                   	retq   
  403369:	90                   	nop

000000000040336a <_ZN2vk26GraphicsPipelineCreateInfoC1ENS_5FlagsINS_22PipelineCreateFlagBitsEjEEjPKNS_29PipelineShaderStageCreateInfoEPKNS_34PipelineVertexInputStateCreateInfoEPKNS_36PipelineInputAssemblyStateCreateInfoEPKNS_35PipelineTessellationStateCreateInfoEPKNS_31PipelineViewportStateCreateInfoEPKNS_36PipelineRasterizationStateCreateInfoEPKNS_34PipelineMultisampleStateCreateInfoEPKNS_35PipelineDepthStencilStateCreateInfoEPKNS_33PipelineColorBlendStateCreateInfoEPKNS_30PipelineDynamicStateCreateInfoENS_14PipelineLayoutENS_10RenderPassEjNS_8PipelineEi>:
  40336a:	55                   	push   %rbp
  40336b:	48 89 e5             	mov    %rsp,%rbp
  40336e:	48 83 ec 30          	sub    $0x30,%rsp
  403372:	48 89 7d f8          	mov    %rdi,-0x8(%rbp)
  403376:	48 89 75 f0          	mov    %rsi,-0x10(%rbp)
  40337a:	89 55 ec             	mov    %edx,-0x14(%rbp)
  40337d:	48 89 4d e0          	mov    %rcx,-0x20(%rbp)
  403381:	4c 89 45 d8          	mov    %r8,-0x28(%rbp)
  403385:	4c 89 4d d0          	mov    %r9,-0x30(%rbp)
  403389:	48 8b 45 f8          	mov    -0x8(%rbp),%rax
  40338d:	c7 00 1c 00 00 00    	movl   $0x1c,(%rax)
  403393:	48 8b 45 f8          	mov    -0x8(%rbp),%rax
  403397:	48 c7 40 08 00 00 00 	movq   $0x0,0x8(%rax)
  40339e:	00 
  40339f:	48 8b 45 f8          	mov    -0x8(%rbp),%rax
  4033a3:	48 8d 50 10          	lea    0x10(%rax),%rdx
  4033a7:	48 8b 45 f0          	mov    -0x10(%rbp),%rax
  4033ab:	48 89 c6             	mov    %rax,%rsi
  4033ae:	48 89 d7             	mov    %rdx,%rdi
  4033b1:	e8 a0 07 00 00       	callq  403b56 <_ZN2vk5FlagsINS_22PipelineCreateFlagBitsEjEC1ERKS2_>
  4033b6:	48 8b 45 f8          	mov    -0x8(%rbp),%rax
  4033ba:	8b 55 ec             	mov    -0x14(%rbp),%edx
  4033bd:	89 50 14             	mov    %edx,0x14(%rax)
  4033c0:	48 8b 45 f8          	mov    -0x8(%rbp),%rax
  4033c4:	48 8b 55 e0          	mov    -0x20(%rbp),%rdx
  4033c8:	48 89 50 18          	mov    %rdx,0x18(%rax)
  4033cc:	48 8b 45 f8          	mov    -0x8(%rbp),%rax
  4033d0:	48 8b 55 d8          	mov    -0x28(%rbp),%rdx
  4033d4:	48 89 50 20          	mov    %rdx,0x20(%rax)
  4033d8:	48 8b 45 f8          	mov    -0x8(%rbp),%rax
  4033dc:	48 8b 55 d0          	mov    -0x30(%rbp),%rdx
  4033e0:	48 89 50 28          	mov    %rdx,0x28(%rax)
  4033e4:	48 8b 45 f8          	mov    -0x8(%rbp),%rax
  4033e8:	48 8b 55 10          	mov    0x10(%rbp),%rdx
  4033ec:	48 89 50 30          	mov    %rdx,0x30(%rax)
  4033f0:	48 8b 45 f8          	mov    -0x8(%rbp),%rax
  4033f4:	48 8b 55 18          	mov    0x18(%rbp),%rdx
  4033f8:	48 89 50 38          	mov    %rdx,0x38(%rax)
  4033fc:	48 8b 45 f8          	mov    -0x8(%rbp),%rax
  403400:	48 8b 55 20          	mov    0x20(%rbp),%rdx
  403404:	48 89 50 40          	mov    %rdx,0x40(%rax)
  403408:	48 8b 45 f8          	mov    -0x8(%rbp),%rax
  40340c:	48 8b 55 28          	mov    0x28(%rbp),%rdx
  403410:	48 89 50 48          	mov    %rdx,0x48(%rax)
  403414:	48 8b 45 f8          	mov    -0x8(%rbp),%rax
  403418:	48 8b 55 30          	mov    0x30(%rbp),%rdx
  40341c:	48 89 50 50          	mov    %rdx,0x50(%rax)
  403420:	48 8b 45 f8          	mov    -0x8(%rbp),%rax
  403424:	48 8b 55 38          	mov    0x38(%rbp),%rdx
  403428:	48 89 50 58          	mov    %rdx,0x58(%rax)
  40342c:	48 8b 45 f8          	mov    -0x8(%rbp),%rax
  403430:	48 8b 55 40          	mov    0x40(%rbp),%rdx
  403434:	48 89 50 60          	mov    %rdx,0x60(%rax)
  403438:	48 8b 45 f8          	mov    -0x8(%rbp),%rax
  40343c:	48 8b 55 48          	mov    0x48(%rbp),%rdx
  403440:	48 89 50 68          	mov    %rdx,0x68(%rax)
  403444:	48 8b 45 f8          	mov    -0x8(%rbp),%rax
  403448:	48 8b 55 50          	mov    0x50(%rbp),%rdx
  40344c:	48 89 50 70          	mov    %rdx,0x70(%rax)
  403450:	48 8b 45 f8          	mov    -0x8(%rbp),%rax
  403454:	8b 55 58             	mov    0x58(%rbp),%edx
  403457:	89 50 78             	mov    %edx,0x78(%rax)
  40345a:	48 8b 45 f8          	mov    -0x8(%rbp),%rax
  40345e:	48 8b 55 60          	mov    0x60(%rbp),%rdx
  403462:	48 89 90 80 00 00 00 	mov    %rdx,0x80(%rax)
  403469:	48 8b 45 f8          	mov    -0x8(%rbp),%rax
  40346d:	8b 55 68             	mov    0x68(%rbp),%edx
  403470:	89 90 88 00 00 00    	mov    %edx,0x88(%rax)
  403476:	90                   	nop
  403477:	c9                   	leaveq 
  403478:	c3                   	retq   
  403479:	90                   	nop

000000000040347a <_ZN2vk32DebugReportCallbackCreateInfoEXTC1ENS_5FlagsINS_22DebugReportFlagBitsEXTEjEEPFjj26VkDebugReportObjectTypeEXTmmiPKcS6_PvES7_>:
  40347a:	55                   	push   %rbp
  40347b:	48 89 e5             	mov    %rsp,%rbp
  40347e:	48 83 ec 20          	sub    $0x20,%rsp
  403482:	48 89 7d f8          	mov    %rdi,-0x8(%rbp)
  403486:	48 89 75 f0          	mov    %rsi,-0x10(%rbp)
  40348a:	48 89 55 e8          	mov    %rdx,-0x18(%rbp)
  40348e:	48 89 4d e0          	mov    %rcx,-0x20(%rbp)
  403492:	48 8b 45 f8          	mov    -0x8(%rbp),%rax
  403496:	c7 00 f8 f4 9a 3b    	movl   $0x3b9af4f8,(%rax)
  40349c:	48 8b 45 f8          	mov    -0x8(%rbp),%rax
  4034a0:	48 c7 40 08 00 00 00 	movq   $0x0,0x8(%rax)
  4034a7:	00 
  4034a8:	48 8b 45 f8          	mov    -0x8(%rbp),%rax
  4034ac:	48 8d 50 10          	lea    0x10(%rax),%rdx
  4034b0:	48 8b 45 f0          	mov    -0x10(%rbp),%rax
  4034b4:	48 89 c6             	mov    %rax,%rsi
  4034b7:	48 89 d7             	mov    %rdx,%rdi
  4034ba:	e8 55 07 00 00       	callq  403c14 <_ZN2vk5FlagsINS_22DebugReportFlagBitsEXTEjEC1ERKS2_>
  4034bf:	48 8b 45 f8          	mov    -0x8(%rbp),%rax
  4034c3:	48 8b 55 e8          	mov    -0x18(%rbp),%rdx
  4034c7:	48 89 50 18          	mov    %rdx,0x18(%rax)
  4034cb:	48 8b 45 f8          	mov    -0x8(%rbp),%rax
  4034cf:	48 8b 55 e0          	mov    -0x20(%rbp),%rdx
  4034d3:	48 89 50 20          	mov    %rdx,0x20(%rax)
  4034d7:	90                   	nop
  4034d8:	c9                   	leaveq 
  4034d9:	c3                   	retq   

00000000004034da <_ZN2vk32DebugReportCallbackCreateInfoEXT8setFlagsENS_5FlagsINS_22DebugReportFlagBitsEXTEjEE>:
  4034da:	55                   	push   %rbp
  4034db:	48 89 e5             	mov    %rsp,%rbp
  4034de:	48 83 ec 10          	sub    $0x10,%rsp
  4034e2:	48 89 7d f8          	mov    %rdi,-0x8(%rbp)
  4034e6:	48 89 75 f0          	mov    %rsi,-0x10(%rbp)
  4034ea:	48 8b 45 f8          	mov    -0x8(%rbp),%rax
  4034ee:	48 8d 50 10          	lea    0x10(%rax),%rdx
  4034f2:	48 8b 45 f0          	mov    -0x10(%rbp),%rax
  4034f6:	48 89 c6             	mov    %rax,%rsi
  4034f9:	48 89 d7             	mov    %rdx,%rdi
  4034fc:	e8 45 07 00 00       	callq  403c46 <_ZN2vk5FlagsINS_22DebugReportFlagBitsEXTEjEaSERKS2_>
  403501:	48 8b 45 f8          	mov    -0x8(%rbp),%rax
  403505:	c9                   	leaveq 
  403506:	c3                   	retq   
  403507:	90                   	nop

0000000000403508 <_ZN2vk5QueueC1Ev>:
  403508:	55                   	push   %rbp
  403509:	48 89 e5             	mov    %rsp,%rbp
  40350c:	48 89 7d f8          	mov    %rdi,-0x8(%rbp)
  403510:	48 8b 45 f8          	mov    -0x8(%rbp),%rax
  403514:	48 c7 00 00 00 00 00 	movq   $0x0,(%rax)
  40351b:	90                   	nop
  40351c:	5d                   	pop    %rbp
  40351d:	c3                   	retq   

000000000040351e <_ZN2vk6DeviceC1Ev>:
  40351e:	55                   	push   %rbp
  40351f:	48 89 e5             	mov    %rsp,%rbp
  403522:	48 89 7d f8          	mov    %rdi,-0x8(%rbp)
  403526:	48 8b 45 f8          	mov    -0x8(%rbp),%rax
  40352a:	48 c7 00 00 00 00 00 	movq   $0x0,(%rax)
  403531:	90                   	nop
  403532:	5d                   	pop    %rbp
  403533:	c3                   	retq   

0000000000403534 <_ZNK2vk6Device8getQueueEjj>:
  403534:	55                   	push   %rbp
  403535:	48 89 e5             	mov    %rsp,%rbp
  403538:	48 83 ec 20          	sub    $0x20,%rsp
  40353c:	48 89 7d e8          	mov    %rdi,-0x18(%rbp)
  403540:	89 75 e4             	mov    %esi,-0x1c(%rbp)
  403543:	89 55 e0             	mov    %edx,-0x20(%rbp)
  403546:	48 8d 45 f0          	lea    -0x10(%rbp),%rax
  40354a:	48 89 c7             	mov    %rax,%rdi
  40354d:	e8 b6 ff ff ff       	callq  403508 <_ZN2vk5QueueC1Ev>
  403552:	48 8b 45 e8          	mov    -0x18(%rbp),%rax
  403556:	48 8b 00             	mov    (%rax),%rax
  403559:	48 8d 4d f0          	lea    -0x10(%rbp),%rcx
  40355d:	8b 55 e0             	mov    -0x20(%rbp),%edx
  403560:	8b 75 e4             	mov    -0x1c(%rbp),%esi
  403563:	48 89 c7             	mov    %rax,%rdi
  403566:	e8 45 e0 ff ff       	callq  4015b0 <vkGetDeviceQueue@plt>
  40356b:	48 8b 45 f0          	mov    -0x10(%rbp),%rax
  40356f:	c9                   	leaveq 
  403570:	c3                   	retq   
  403571:	90                   	nop

0000000000403572 <_ZNK2vk6Device18createShaderModuleERKNS_22ShaderModuleCreateInfoENS_8OptionalIKNS_19AllocationCallbacksEEE>:
  403572:	55                   	push   %rbp
  403573:	48 89 e5             	mov    %rsp,%rbp
  403576:	41 54                	push   %r12
  403578:	53                   	push   %rbx
  403579:	48 83 ec 50          	sub    $0x50,%rsp
  40357d:	48 89 7d b8          	mov    %rdi,-0x48(%rbp)
  403581:	48 89 75 b0          	mov    %rsi,-0x50(%rbp)
  403585:	48 89 55 a0          	mov    %rdx,-0x60(%rbp)
  403589:	48 8d 45 c0          	lea    -0x40(%rbp),%rax
  40358d:	48 89 c7             	mov    %rax,%rdi
  403590:	e8 63 fa ff ff       	callq  402ff8 <_ZN2vk12ShaderModuleC1Ev>
  403595:	48 8d 45 a0          	lea    -0x60(%rbp),%rax
  403599:	48 89 c7             	mov    %rax,%rdi
  40359c:	e8 c3 06 00 00       	callq  403c64 <_ZNK2vk8OptionalIKNS_19AllocationCallbacksEEcvPS2_Ev>
  4035a1:	48 89 c7             	mov    %rax,%rdi
  4035a4:	48 8b 45 b8          	mov    -0x48(%rbp),%rax
  4035a8:	48 8b 00             	mov    (%rax),%rax
  4035ab:	48 8d 55 c0          	lea    -0x40(%rbp),%rdx
  4035af:	48 8b 75 b0          	mov    -0x50(%rbp),%rsi
  4035b3:	48 89 d1             	mov    %rdx,%rcx
  4035b6:	48 89 fa             	mov    %rdi,%rdx
  4035b9:	48 89 c7             	mov    %rax,%rdi
  4035bc:	e8 4f df ff ff       	callq  401510 <vkCreateShaderModule@plt>
  4035c1:	89 45 ec             	mov    %eax,-0x14(%rbp)
  4035c4:	8b 45 ec             	mov    -0x14(%rbp),%eax
  4035c7:	89 45 e8             	mov    %eax,-0x18(%rbp)
  4035ca:	48 c7 45 e0 50 82 40 	movq   $0x408250,-0x20(%rbp)
  4035d1:	00 
  4035d2:	83 7d e8 00          	cmpl   $0x0,-0x18(%rbp)
  4035d6:	74 48                	je     403620 <_ZNK2vk6Device18createShaderModuleERKNS_22ShaderModuleCreateInfoENS_8OptionalIKNS_19AllocationCallbacksEEE+0xae>
  4035d8:	bf 20 00 00 00       	mov    $0x20,%edi
  4035dd:	e8 8e de ff ff       	callq  401470 <__cxa_allocate_exception@plt>
  4035e2:	48 89 c3             	mov    %rax,%rbx
  4035e5:	8b 55 e8             	mov    -0x18(%rbp),%edx
  4035e8:	48 8d 45 d0          	lea    -0x30(%rbp),%rax
  4035ec:	89 d6                	mov    %edx,%esi
  4035ee:	48 89 c7             	mov    %rax,%rdi
  4035f1:	e8 b0 03 00 00       	callq  4039a6 <_ZNSt10error_codeC1IN2vk6ResultEvEET_>
  4035f6:	48 8b 4d e0          	mov    -0x20(%rbp),%rcx
  4035fa:	8b 55 d0             	mov    -0x30(%rbp),%edx
  4035fd:	48 8b 45 d8          	mov    -0x28(%rbp),%rax
  403601:	89 d6                	mov    %edx,%esi
  403603:	48 89 c2             	mov    %rax,%rdx
  403606:	48 89 df             	mov    %rbx,%rdi
  403609:	e8 50 ef ff ff       	callq  40255e <_ZNSt12system_errorC1ESt10error_codePKc>
  40360e:	ba 80 15 40 00       	mov    $0x401580,%edx
  403613:	be a0 d4 60 00       	mov    $0x60d4a0,%esi
  403618:	48 89 df             	mov    %rbx,%rdi
  40361b:	e8 10 e0 ff ff       	callq  401630 <__cxa_throw@plt>
  403620:	48 8b 45 c0          	mov    -0x40(%rbp),%rax
  403624:	eb 16                	jmp    40363c <_ZNK2vk6Device18createShaderModuleERKNS_22ShaderModuleCreateInfoENS_8OptionalIKNS_19AllocationCallbacksEEE+0xca>
  403626:	49 89 c4             	mov    %rax,%r12
  403629:	48 89 df             	mov    %rbx,%rdi
  40362c:	e8 af de ff ff       	callq  4014e0 <__cxa_free_exception@plt>
  403631:	4c 89 e0             	mov    %r12,%rax
  403634:	48 89 c7             	mov    %rax,%rdi
  403637:	e8 14 e0 ff ff       	callq  401650 <_Unwind_Resume@plt>
  40363c:	48 83 c4 50          	add    $0x50,%rsp
  403640:	5b                   	pop    %rbx
  403641:	41 5c                	pop    %r12
  403643:	5d                   	pop    %rbp
  403644:	c3                   	retq   
  403645:	90                   	nop

0000000000403646 <_ZNK2vk6Device22createGraphicsPipelineENS_13PipelineCacheERKNS_26GraphicsPipelineCreateInfoENS_8OptionalIKNS_19AllocationCallbacksEEE>:
  403646:	55                   	push   %rbp
  403647:	48 89 e5             	mov    %rsp,%rbp
  40364a:	41 54                	push   %r12
  40364c:	53                   	push   %rbx
  40364d:	48 83 ec 50          	sub    $0x50,%rsp
  403651:	48 89 7d b8          	mov    %rdi,-0x48(%rbp)
  403655:	48 89 75 b0          	mov    %rsi,-0x50(%rbp)
  403659:	48 89 55 a8          	mov    %rdx,-0x58(%rbp)
  40365d:	48 89 4d a0          	mov    %rcx,-0x60(%rbp)
  403661:	48 8d 45 c0          	lea    -0x40(%rbp),%rax
  403665:	48 89 c7             	mov    %rax,%rdi
  403668:	e8 a1 f9 ff ff       	callq  40300e <_ZN2vk8PipelineC1Ev>
  40366d:	48 8d 45 a0          	lea    -0x60(%rbp),%rax
  403671:	48 89 c7             	mov    %rax,%rdi
  403674:	e8 eb 05 00 00       	callq  403c64 <_ZNK2vk8OptionalIKNS_19AllocationCallbacksEEcvPS2_Ev>
  403679:	48 89 c3             	mov    %rax,%rbx
  40367c:	48 8d 45 b0          	lea    -0x50(%rbp),%rax
  403680:	48 89 c7             	mov    %rax,%rdi
  403683:	e8 e2 f9 ff ff       	callq  40306a <_ZNK2vk13PipelineCachecvP17VkPipelineCache_TEv>
  403688:	48 89 c6             	mov    %rax,%rsi
  40368b:	48 8b 45 b8          	mov    -0x48(%rbp),%rax
  40368f:	48 8b 00             	mov    (%rax),%rax
  403692:	48 8d 4d c0          	lea    -0x40(%rbp),%rcx
  403696:	48 8b 55 a8          	mov    -0x58(%rbp),%rdx
  40369a:	49 89 c9             	mov    %rcx,%r9
  40369d:	49 89 d8             	mov    %rbx,%r8
  4036a0:	48 89 d1             	mov    %rdx,%rcx
  4036a3:	ba 01 00 00 00       	mov    $0x1,%edx
  4036a8:	48 89 c7             	mov    %rax,%rdi
  4036ab:	e8 b0 dd ff ff       	callq  401460 <vkCreateGraphicsPipelines@plt>
  4036b0:	89 45 ec             	mov    %eax,-0x14(%rbp)
  4036b3:	8b 45 ec             	mov    -0x14(%rbp),%eax
  4036b6:	89 45 e8             	mov    %eax,-0x18(%rbp)
  4036b9:	48 c7 45 e0 70 82 40 	movq   $0x408270,-0x20(%rbp)
  4036c0:	00 
  4036c1:	83 7d e8 00          	cmpl   $0x0,-0x18(%rbp)
  4036c5:	74 48                	je     40370f <_ZNK2vk6Device22createGraphicsPipelineENS_13PipelineCacheERKNS_26GraphicsPipelineCreateInfoENS_8OptionalIKNS_19AllocationCallbacksEEE+0xc9>
  4036c7:	bf 20 00 00 00       	mov    $0x20,%edi
  4036cc:	e8 9f dd ff ff       	callq  401470 <__cxa_allocate_exception@plt>
  4036d1:	48 89 c3             	mov    %rax,%rbx
  4036d4:	8b 55 e8             	mov    -0x18(%rbp),%edx
  4036d7:	48 8d 45 d0          	lea    -0x30(%rbp),%rax
  4036db:	89 d6                	mov    %edx,%esi
  4036dd:	48 89 c7             	mov    %rax,%rdi
  4036e0:	e8 c1 02 00 00       	callq  4039a6 <_ZNSt10error_codeC1IN2vk6ResultEvEET_>
  4036e5:	48 8b 4d e0          	mov    -0x20(%rbp),%rcx
  4036e9:	8b 55 d0             	mov    -0x30(%rbp),%edx
  4036ec:	48 8b 45 d8          	mov    -0x28(%rbp),%rax
  4036f0:	89 d6                	mov    %edx,%esi
  4036f2:	48 89 c2             	mov    %rax,%rdx
  4036f5:	48 89 df             	mov    %rbx,%rdi
  4036f8:	e8 61 ee ff ff       	callq  40255e <_ZNSt12system_errorC1ESt10error_codePKc>
  4036fd:	ba 80 15 40 00       	mov    $0x401580,%edx
  403702:	be a0 d4 60 00       	mov    $0x60d4a0,%esi
  403707:	48 89 df             	mov    %rbx,%rdi
  40370a:	e8 21 df ff ff       	callq  401630 <__cxa_throw@plt>
  40370f:	48 8b 45 c0          	mov    -0x40(%rbp),%rax
  403713:	eb 16                	jmp    40372b <_ZNK2vk6Device22createGraphicsPipelineENS_13PipelineCacheERKNS_26GraphicsPipelineCreateInfoENS_8OptionalIKNS_19AllocationCallbacksEEE+0xe5>
  403715:	49 89 c4             	mov    %rax,%r12
  403718:	48 89 df             	mov    %rbx,%rdi
  40371b:	e8 c0 dd ff ff       	callq  4014e0 <__cxa_free_exception@plt>
  403720:	4c 89 e0             	mov    %r12,%rax
  403723:	48 89 c7             	mov    %rax,%rdi
  403726:	e8 25 df ff ff       	callq  401650 <_Unwind_Resume@plt>
  40372b:	48 83 c4 50          	add    $0x50,%rsp
  40372f:	5b                   	pop    %rbx
  403730:	41 5c                	pop    %r12
  403732:	5d                   	pop    %rbp
  403733:	c3                   	retq   

0000000000403734 <_ZNK2vk6Device17createCommandPoolERKNS_21CommandPoolCreateInfoENS_8OptionalIKNS_19AllocationCallbacksEEE>:
  403734:	55                   	push   %rbp
  403735:	48 89 e5             	mov    %rsp,%rbp
  403738:	41 54                	push   %r12
  40373a:	53                   	push   %rbx
  40373b:	48 83 ec 50          	sub    $0x50,%rsp
  40373f:	48 89 7d b8          	mov    %rdi,-0x48(%rbp)
  403743:	48 89 75 b0          	mov    %rsi,-0x50(%rbp)
  403747:	48 89 55 a0          	mov    %rdx,-0x60(%rbp)
  40374b:	48 8d 45 c0          	lea    -0x40(%rbp),%rax
  40374f:	48 89 c7             	mov    %rax,%rdi
  403752:	e8 8b f8 ff ff       	callq  402fe2 <_ZN2vk11CommandPoolC1Ev>
  403757:	48 8d 45 a0          	lea    -0x60(%rbp),%rax
  40375b:	48 89 c7             	mov    %rax,%rdi
  40375e:	e8 01 05 00 00       	callq  403c64 <_ZNK2vk8OptionalIKNS_19AllocationCallbacksEEcvPS2_Ev>
  403763:	48 89 c7             	mov    %rax,%rdi
  403766:	48 8b 45 b8          	mov    -0x48(%rbp),%rax
  40376a:	48 8b 00             	mov    (%rax),%rax
  40376d:	48 8d 55 c0          	lea    -0x40(%rbp),%rdx
  403771:	48 8b 75 b0          	mov    -0x50(%rbp),%rsi
  403775:	48 89 d1             	mov    %rdx,%rcx
  403778:	48 89 fa             	mov    %rdi,%rdx
  40377b:	48 89 c7             	mov    %rax,%rdi
  40377e:	e8 bd dc ff ff       	callq  401440 <vkCreateCommandPool@plt>
  403783:	89 45 ec             	mov    %eax,-0x14(%rbp)
  403786:	8b 45 ec             	mov    -0x14(%rbp),%eax
  403789:	89 45 e8             	mov    %eax,-0x18(%rbp)
  40378c:	48 c7 45 e0 93 82 40 	movq   $0x408293,-0x20(%rbp)
  403793:	00 
  403794:	83 7d e8 00          	cmpl   $0x0,-0x18(%rbp)
  403798:	74 48                	je     4037e2 <_ZNK2vk6Device17createCommandPoolERKNS_21CommandPoolCreateInfoENS_8OptionalIKNS_19AllocationCallbacksEEE+0xae>
  40379a:	bf 20 00 00 00       	mov    $0x20,%edi
  40379f:	e8 cc dc ff ff       	callq  401470 <__cxa_allocate_exception@plt>
  4037a4:	48 89 c3             	mov    %rax,%rbx
  4037a7:	8b 55 e8             	mov    -0x18(%rbp),%edx
  4037aa:	48 8d 45 d0          	lea    -0x30(%rbp),%rax
  4037ae:	89 d6                	mov    %edx,%esi
  4037b0:	48 89 c7             	mov    %rax,%rdi
  4037b3:	e8 ee 01 00 00       	callq  4039a6 <_ZNSt10error_codeC1IN2vk6ResultEvEET_>
  4037b8:	48 8b 4d e0          	mov    -0x20(%rbp),%rcx
  4037bc:	8b 55 d0             	mov    -0x30(%rbp),%edx
  4037bf:	48 8b 45 d8          	mov    -0x28(%rbp),%rax
  4037c3:	89 d6                	mov    %edx,%esi
  4037c5:	48 89 c2             	mov    %rax,%rdx
  4037c8:	48 89 df             	mov    %rbx,%rdi
  4037cb:	e8 8e ed ff ff       	callq  40255e <_ZNSt12system_errorC1ESt10error_codePKc>
  4037d0:	ba 80 15 40 00       	mov    $0x401580,%edx
  4037d5:	be a0 d4 60 00       	mov    $0x60d4a0,%esi
  4037da:	48 89 df             	mov    %rbx,%rdi
  4037dd:	e8 4e de ff ff       	callq  401630 <__cxa_throw@plt>
  4037e2:	48 8b 45 c0          	mov    -0x40(%rbp),%rax
  4037e6:	eb 16                	jmp    4037fe <_ZNK2vk6Device17createCommandPoolERKNS_21CommandPoolCreateInfoENS_8OptionalIKNS_19AllocationCallbacksEEE+0xca>
  4037e8:	49 89 c4             	mov    %rax,%r12
  4037eb:	48 89 df             	mov    %rbx,%rdi
  4037ee:	e8 ed dc ff ff       	callq  4014e0 <__cxa_free_exception@plt>
  4037f3:	4c 89 e0             	mov    %r12,%rax
  4037f6:	48 89 c7             	mov    %rax,%rdi
  4037f9:	e8 52 de ff ff       	callq  401650 <_Unwind_Resume@plt>
  4037fe:	48 83 c4 50          	add    $0x50,%rsp
  403802:	5b                   	pop    %rbx
  403803:	41 5c                	pop    %r12
  403805:	5d                   	pop    %rbp
  403806:	c3                   	retq   
  403807:	90                   	nop

0000000000403808 <_ZN2vk14PhysicalDeviceC1Ev>:
  403808:	55                   	push   %rbp
  403809:	48 89 e5             	mov    %rsp,%rbp
  40380c:	48 89 7d f8          	mov    %rdi,-0x8(%rbp)
  403810:	48 8b 45 f8          	mov    -0x8(%rbp),%rax
  403814:	48 c7 00 00 00 00 00 	movq   $0x0,(%rax)
  40381b:	90                   	nop
  40381c:	5d                   	pop    %rbp
  40381d:	c3                   	retq   

000000000040381e <_ZNK2vk14PhysicalDevice12createDeviceERKNS_16DeviceCreateInfoENS_8OptionalIKNS_19AllocationCallbacksEEE>:
  40381e:	55                   	push   %rbp
  40381f:	48 89 e5             	mov    %rsp,%rbp
  403822:	41 54                	push   %r12
  403824:	53                   	push   %rbx
  403825:	48 83 ec 50          	sub    $0x50,%rsp
  403829:	48 89 7d b8          	mov    %rdi,-0x48(%rbp)
  40382d:	48 89 75 b0          	mov    %rsi,-0x50(%rbp)
  403831:	48 89 55 a0          	mov    %rdx,-0x60(%rbp)
  403835:	48 8d 45 c0          	lea    -0x40(%rbp),%rax
  403839:	48 89 c7             	mov    %rax,%rdi
  40383c:	e8 dd fc ff ff       	callq  40351e <_ZN2vk6DeviceC1Ev>
  403841:	48 8d 45 a0          	lea    -0x60(%rbp),%rax
  403845:	48 89 c7             	mov    %rax,%rdi
  403848:	e8 17 04 00 00       	callq  403c64 <_ZNK2vk8OptionalIKNS_19AllocationCallbacksEEcvPS2_Ev>
  40384d:	48 89 c7             	mov    %rax,%rdi
  403850:	48 8b 45 b8          	mov    -0x48(%rbp),%rax
  403854:	48 8b 00             	mov    (%rax),%rax
  403857:	48 8d 55 c0          	lea    -0x40(%rbp),%rdx
  40385b:	48 8b 75 b0          	mov    -0x50(%rbp),%rsi
  40385f:	48 89 d1             	mov    %rdx,%rcx
  403862:	48 89 fa             	mov    %rdi,%rdx
  403865:	48 89 c7             	mov    %rax,%rdi
  403868:	e8 73 dd ff ff       	callq  4015e0 <vkCreateDevice@plt>
  40386d:	89 45 ec             	mov    %eax,-0x14(%rbp)
  403870:	8b 45 ec             	mov    -0x14(%rbp),%eax
  403873:	89 45 e8             	mov    %eax,-0x18(%rbp)
  403876:	48 c7 45 e0 b8 82 40 	movq   $0x4082b8,-0x20(%rbp)
  40387d:	00 
  40387e:	83 7d e8 00          	cmpl   $0x0,-0x18(%rbp)
  403882:	74 48                	je     4038cc <_ZNK2vk14PhysicalDevice12createDeviceERKNS_16DeviceCreateInfoENS_8OptionalIKNS_19AllocationCallbacksEEE+0xae>
  403884:	bf 20 00 00 00       	mov    $0x20,%edi
  403889:	e8 e2 db ff ff       	callq  401470 <__cxa_allocate_exception@plt>
  40388e:	48 89 c3             	mov    %rax,%rbx
  403891:	8b 55 e8             	mov    -0x18(%rbp),%edx
  403894:	48 8d 45 d0          	lea    -0x30(%rbp),%rax
  403898:	89 d6                	mov    %edx,%esi
  40389a:	48 89 c7             	mov    %rax,%rdi
  40389d:	e8 04 01 00 00       	callq  4039a6 <_ZNSt10error_codeC1IN2vk6ResultEvEET_>
  4038a2:	48 8b 4d e0          	mov    -0x20(%rbp),%rcx
  4038a6:	8b 55 d0             	mov    -0x30(%rbp),%edx
  4038a9:	48 8b 45 d8          	mov    -0x28(%rbp),%rax
  4038ad:	89 d6                	mov    %edx,%esi
  4038af:	48 89 c2             	mov    %rax,%rdx
  4038b2:	48 89 df             	mov    %rbx,%rdi
  4038b5:	e8 a4 ec ff ff       	callq  40255e <_ZNSt12system_errorC1ESt10error_codePKc>
  4038ba:	ba 80 15 40 00       	mov    $0x401580,%edx
  4038bf:	be a0 d4 60 00       	mov    $0x60d4a0,%esi
  4038c4:	48 89 df             	mov    %rbx,%rdi
  4038c7:	e8 64 dd ff ff       	callq  401630 <__cxa_throw@plt>
  4038cc:	48 8b 45 c0          	mov    -0x40(%rbp),%rax
  4038d0:	eb 16                	jmp    4038e8 <_ZNK2vk14PhysicalDevice12createDeviceERKNS_16DeviceCreateInfoENS_8OptionalIKNS_19AllocationCallbacksEEE+0xca>
  4038d2:	49 89 c4             	mov    %rax,%r12
  4038d5:	48 89 df             	mov    %rbx,%rdi
  4038d8:	e8 03 dc ff ff       	callq  4014e0 <__cxa_free_exception@plt>
  4038dd:	4c 89 e0             	mov    %r12,%rax
  4038e0:	48 89 c7             	mov    %rax,%rdi
  4038e3:	e8 68 dd ff ff       	callq  401650 <_Unwind_Resume@plt>
  4038e8:	48 83 c4 50          	add    $0x50,%rsp
  4038ec:	5b                   	pop    %rbx
  4038ed:	41 5c                	pop    %r12
  4038ef:	5d                   	pop    %rbp
  4038f0:	c3                   	retq   
  4038f1:	90                   	nop

00000000004038f2 <_ZN2vk8InstanceC1Ev>:
  4038f2:	55                   	push   %rbp
  4038f3:	48 89 e5             	mov    %rsp,%rbp
  4038f6:	48 89 7d f8          	mov    %rdi,-0x8(%rbp)
  4038fa:	48 8b 45 f8          	mov    -0x8(%rbp),%rax
  4038fe:	48 c7 00 00 00 00 00 	movq   $0x0,(%rax)
  403905:	90                   	nop
  403906:	5d                   	pop    %rbp
  403907:	c3                   	retq   

0000000000403908 <_ZNK2vk8InstancecvP12VkInstance_TEv>:
  403908:	55                   	push   %rbp
  403909:	48 89 e5             	mov    %rsp,%rbp
  40390c:	48 89 7d f8          	mov    %rdi,-0x8(%rbp)
  403910:	48 8b 45 f8          	mov    -0x8(%rbp),%rax
  403914:	48 8b 00             	mov    (%rax),%rax
  403917:	5d                   	pop    %rbp
  403918:	c3                   	retq   

0000000000403919 <_Z7Modulesv>:
  403919:	55                   	push   %rbp
  40391a:	48 89 e5             	mov    %rsp,%rbp
  40391d:	b8 02 00 00 00       	mov    $0x2,%eax
  403922:	5d                   	pop    %rbp
  403923:	c3                   	retq   

0000000000403924 <_ZSt4moveIRSt6vectorIjSaIjEEEONSt16remove_referenceIT_E4typeEOS5_>:
  403924:	55                   	push   %rbp
  403925:	48 89 e5             	mov    %rsp,%rbp
  403928:	48 89 7d f8          	mov    %rdi,-0x8(%rbp)
  40392c:	48 8b 45 f8          	mov    -0x8(%rbp),%rax
  403930:	5d                   	pop    %rbp
  403931:	c3                   	retq   

0000000000403932 <_ZSt4moveIRSt6vectorIPjSaIS1_EEEONSt16remove_referenceIT_E4typeEOS6_>:
  403932:	55                   	push   %rbp
  403933:	48 89 e5             	mov    %rsp,%rbp
  403936:	48 89 7d f8          	mov    %rdi,-0x8(%rbp)
  40393a:	48 8b 45 f8          	mov    -0x8(%rbp),%rax
  40393e:	5d                   	pop    %rbp
  40393f:	c3                   	retq   

0000000000403940 <_ZSt4moveIRSt6vectorIN2vk19ShaderStageFlagBitsESaIS2_EEEONSt16remove_referenceIT_E4typeEOS7_>:
  403940:	55                   	push   %rbp
  403941:	48 89 e5             	mov    %rsp,%rbp
  403944:	48 89 7d f8          	mov    %rdi,-0x8(%rbp)
  403948:	48 8b 45 f8          	mov    -0x8(%rbp),%rax
  40394c:	5d                   	pop    %rbp
  40394d:	c3                   	retq   

000000000040394e <_ZSt4moveIRNSt7__cxx1112basic_stringIcSt11char_traitsIcESaIcEEEEONSt16remove_referenceIT_E4typeEOS8_>:
  40394e:	55                   	push   %rbp
  40394f:	48 89 e5             	mov    %rsp,%rbp
  403952:	48 89 7d f8          	mov    %rdi,-0x8(%rbp)
  403956:	48 8b 45 f8          	mov    -0x8(%rbp),%rax
  40395a:	5d                   	pop    %rbp
  40395b:	c3                   	retq   

000000000040395c <_ZStplIcSt11char_traitsIcESaIcEENSt7__cxx1112basic_stringIT_T0_T1_EEPKS5_OS8_>:
  40395c:	55                   	push   %rbp
  40395d:	48 89 e5             	mov    %rsp,%rbp
  403960:	48 83 ec 20          	sub    $0x20,%rsp
  403964:	48 89 7d f8          	mov    %rdi,-0x8(%rbp)
  403968:	48 89 75 f0          	mov    %rsi,-0x10(%rbp)
  40396c:	48 89 55 e8          	mov    %rdx,-0x18(%rbp)
  403970:	48 8b 55 f0          	mov    -0x10(%rbp),%rdx
  403974:	48 8b 45 e8          	mov    -0x18(%rbp),%rax
  403978:	be 00 00 00 00       	mov    $0x0,%esi
  40397d:	48 89 c7             	mov    %rax,%rdi
  403980:	e8 8b da ff ff       	callq  401410 <_ZNSt7__cxx1112basic_stringIcSt11char_traitsIcESaIcEE6insertEmPKc@plt>
  403985:	48 89 c7             	mov    %rax,%rdi
  403988:	e8 c1 ff ff ff       	callq  40394e <_ZSt4moveIRNSt7__cxx1112basic_stringIcSt11char_traitsIcESaIcEEEEONSt16remove_referenceIT_E4typeEOS8_>
  40398d:	48 89 c2             	mov    %rax,%rdx
  403990:	48 8b 45 f8          	mov    -0x8(%rbp),%rax
  403994:	48 89 d6             	mov    %rdx,%rsi
  403997:	48 89 c7             	mov    %rax,%rdi
  40399a:	e8 01 db ff ff       	callq  4014a0 <_ZNSt7__cxx1112basic_stringIcSt11char_traitsIcESaIcEEC1EOS4_@plt>
  40399f:	48 8b 45 f8          	mov    -0x8(%rbp),%rax
  4039a3:	c9                   	leaveq 
  4039a4:	c3                   	retq   
  4039a5:	90                   	nop

00000000004039a6 <_ZNSt10error_codeC1IN2vk6ResultEvEET_>:
  4039a6:	55                   	push   %rbp
  4039a7:	48 89 e5             	mov    %rsp,%rbp
  4039aa:	48 83 ec 30          	sub    $0x30,%rsp
  4039ae:	48 89 7d d8          	mov    %rdi,-0x28(%rbp)
  4039b2:	89 75 d4             	mov    %esi,-0x2c(%rbp)
  4039b5:	8b 45 d4             	mov    -0x2c(%rbp),%eax
  4039b8:	89 45 fc             	mov    %eax,-0x4(%rbp)
  4039bb:	0f b6 05 de 9b 20 00 	movzbl 0x209bde(%rip),%eax        # 60d5a0 <_ZGVZN2vk13errorCategoryEvE8instance>
  4039c2:	84 c0                	test   %al,%al
  4039c4:	0f 94 c0             	sete   %al
  4039c7:	84 c0                	test   %al,%al
  4039c9:	74 31                	je     4039fc <_ZNSt10error_codeC1IN2vk6ResultEvEET_+0x56>
  4039cb:	bf a0 d5 60 00       	mov    $0x60d5a0,%edi
  4039d0:	e8 bb dc ff ff       	callq  401690 <__cxa_guard_acquire@plt>
  4039d5:	85 c0                	test   %eax,%eax
  4039d7:	0f 95 c0             	setne  %al
  4039da:	84 c0                	test   %al,%al
  4039dc:	74 1e                	je     4039fc <_ZNSt10error_codeC1IN2vk6ResultEvEET_+0x56>
  4039de:	bf a0 d5 60 00       	mov    $0x60d5a0,%edi
  4039e3:	e8 d8 da ff ff       	callq  4014c0 <__cxa_guard_release@plt>
  4039e8:	ba 78 d1 60 00       	mov    $0x60d178,%edx
  4039ed:	be a0 d1 60 00       	mov    $0x60d1a0,%esi
  4039f2:	bf 2e 7f 40 00       	mov    $0x407f2e,%edi
  4039f7:	e8 24 db ff ff       	callq  401520 <__cxa_atexit@plt>
  4039fc:	ba a0 d1 60 00       	mov    $0x60d1a0,%edx
  403a01:	8b 4d fc             	mov    -0x4(%rbp),%ecx
  403a04:	48 8d 45 e0          	lea    -0x20(%rbp),%rax
  403a08:	89 ce                	mov    %ecx,%esi
  403a0a:	48 89 c7             	mov    %rax,%rdi
  403a0d:	e8 ae ea ff ff       	callq  4024c0 <_ZNSt10error_codeC1EiRKNSt3_V214error_categoryE>
  403a12:	48 8b 45 e0          	mov    -0x20(%rbp),%rax
  403a16:	48 8b 55 e8          	mov    -0x18(%rbp),%rdx
  403a1a:	48 8b 4d d8          	mov    -0x28(%rbp),%rcx
  403a1e:	48 89 01             	mov    %rax,(%rcx)
  403a21:	48 89 51 08          	mov    %rdx,0x8(%rcx)
  403a25:	90                   	nop
  403a26:	c9                   	leaveq 
  403a27:	c3                   	retq   

0000000000403a28 <_ZN2vk5FlagsINS_33PipelineShaderStageCreateFlagBitsEjEC1ERKS2_>:
  403a28:	55                   	push   %rbp
  403a29:	48 89 e5             	mov    %rsp,%rbp
  403a2c:	48 89 7d f8          	mov    %rdi,-0x8(%rbp)
  403a30:	48 89 75 f0          	mov    %rsi,-0x10(%rbp)
  403a34:	48 8b 45 f0          	mov    -0x10(%rbp),%rax
  403a38:	8b 10                	mov    (%rax),%edx
  403a3a:	48 8b 45 f8          	mov    -0x8(%rbp),%rax
  403a3e:	89 10                	mov    %edx,(%rax)
  403a40:	90                   	nop
  403a41:	5d                   	pop    %rbp
  403a42:	c3                   	retq   
  403a43:	90                   	nop

0000000000403a44 <_ZN2vk5FlagsINS_22InstanceCreateFlagBitsEjEC1ERKS2_>:
  403a44:	55                   	push   %rbp
  403a45:	48 89 e5             	mov    %rsp,%rbp
  403a48:	48 89 7d f8          	mov    %rdi,-0x8(%rbp)
  403a4c:	48 89 75 f0          	mov    %rsi,-0x10(%rbp)
  403a50:	48 8b 45 f0          	mov    -0x10(%rbp),%rax
  403a54:	8b 10                	mov    (%rax),%edx
  403a56:	48 8b 45 f8          	mov    -0x8(%rbp),%rax
  403a5a:	89 10                	mov    %edx,(%rax)
  403a5c:	90                   	nop
  403a5d:	5d                   	pop    %rbp
  403a5e:	c3                   	retq   
  403a5f:	90                   	nop

0000000000403a60 <_ZN2vk5FlagsINS_20DeviceCreateFlagBitsEjEC1ERKS2_>:
  403a60:	55                   	push   %rbp
  403a61:	48 89 e5             	mov    %rsp,%rbp
  403a64:	48 89 7d f8          	mov    %rdi,-0x8(%rbp)
  403a68:	48 89 75 f0          	mov    %rsi,-0x10(%rbp)
  403a6c:	48 8b 45 f0          	mov    -0x10(%rbp),%rax
  403a70:	8b 10                	mov    (%rax),%edx
  403a72:	48 8b 45 f8          	mov    -0x8(%rbp),%rax
  403a76:	89 10                	mov    %edx,(%rax)
  403a78:	90                   	nop
  403a79:	5d                   	pop    %rbp
  403a7a:	c3                   	retq   
  403a7b:	90                   	nop

0000000000403a7c <_ZN2vk5FlagsINS_25DeviceQueueCreateFlagBitsEjEC1ERKS2_>:
  403a7c:	55                   	push   %rbp
  403a7d:	48 89 e5             	mov    %rsp,%rbp
  403a80:	48 89 7d f8          	mov    %rdi,-0x8(%rbp)
  403a84:	48 89 75 f0          	mov    %rsi,-0x10(%rbp)
  403a88:	48 8b 45 f0          	mov    -0x10(%rbp),%rax
  403a8c:	8b 10                	mov    (%rax),%edx
  403a8e:	48 8b 45 f8          	mov    -0x8(%rbp),%rax
  403a92:	89 10                	mov    %edx,(%rax)
  403a94:	90                   	nop
  403a95:	5d                   	pop    %rbp
  403a96:	c3                   	retq   
  403a97:	90                   	nop

0000000000403a98 <_ZN2vk5FlagsINS_26ShaderModuleCreateFlagBitsEjEC1ERKS2_>:
  403a98:	55                   	push   %rbp
  403a99:	48 89 e5             	mov    %rsp,%rbp
  403a9c:	48 89 7d f8          	mov    %rdi,-0x8(%rbp)
  403aa0:	48 89 75 f0          	mov    %rsi,-0x10(%rbp)
  403aa4:	48 8b 45 f0          	mov    -0x10(%rbp),%rax
  403aa8:	8b 10                	mov    (%rax),%edx
  403aaa:	48 8b 45 f8          	mov    -0x8(%rbp),%rax
  403aae:	89 10                	mov    %edx,(%rax)
  403ab0:	90                   	nop
  403ab1:	5d                   	pop    %rbp
  403ab2:	c3                   	retq   
  403ab3:	90                   	nop

0000000000403ab4 <_ZN2vk5FlagsINS_25DeviceQueueCreateFlagBitsEjEC1Ev>:
  403ab4:	55                   	push   %rbp
  403ab5:	48 89 e5             	mov    %rsp,%rbp
  403ab8:	48 89 7d f8          	mov    %rdi,-0x8(%rbp)
  403abc:	48 8b 45 f8          	mov    -0x8(%rbp),%rax
  403ac0:	c7 00 00 00 00 00    	movl   $0x0,(%rax)
  403ac6:	90                   	nop
  403ac7:	5d                   	pop    %rbp
  403ac8:	c3                   	retq   
  403ac9:	90                   	nop

0000000000403aca <_ZN2vk5FlagsINS_20DeviceCreateFlagBitsEjEC1Ev>:
  403aca:	55                   	push   %rbp
  403acb:	48 89 e5             	mov    %rsp,%rbp
  403ace:	48 89 7d f8          	mov    %rdi,-0x8(%rbp)
  403ad2:	48 8b 45 f8          	mov    -0x8(%rbp),%rax
  403ad6:	c7 00 00 00 00 00    	movl   $0x0,(%rax)
  403adc:	90                   	nop
  403add:	5d                   	pop    %rbp
  403ade:	c3                   	retq   
  403adf:	90                   	nop

0000000000403ae0 <_ZN2vk5FlagsINS_22InstanceCreateFlagBitsEjEC1Ev>:
  403ae0:	55                   	push   %rbp
  403ae1:	48 89 e5             	mov    %rsp,%rbp
  403ae4:	48 89 7d f8          	mov    %rdi,-0x8(%rbp)
  403ae8:	48 8b 45 f8          	mov    -0x8(%rbp),%rax
  403aec:	c7 00 00 00 00 00    	movl   $0x0,(%rax)
  403af2:	90                   	nop
  403af3:	5d                   	pop    %rbp
  403af4:	c3                   	retq   
  403af5:	90                   	nop

0000000000403af6 <_ZN2vk5FlagsINS_26ShaderModuleCreateFlagBitsEjEC1Ev>:
  403af6:	55                   	push   %rbp
  403af7:	48 89 e5             	mov    %rsp,%rbp
  403afa:	48 89 7d f8          	mov    %rdi,-0x8(%rbp)
  403afe:	48 8b 45 f8          	mov    -0x8(%rbp),%rax
  403b02:	c7 00 00 00 00 00    	movl   $0x0,(%rax)
  403b08:	90                   	nop
  403b09:	5d                   	pop    %rbp
  403b0a:	c3                   	retq   
  403b0b:	90                   	nop

0000000000403b0c <_ZN2vk5FlagsINS_13QueueFlagBitsEjEC1ES1_>:
  403b0c:	55                   	push   %rbp
  403b0d:	48 89 e5             	mov    %rsp,%rbp
  403b10:	48 89 7d f8          	mov    %rdi,-0x8(%rbp)
  403b14:	89 75 f4             	mov    %esi,-0xc(%rbp)
  403b17:	8b 55 f4             	mov    -0xc(%rbp),%edx
  403b1a:	48 8b 45 f8          	mov    -0x8(%rbp),%rax
  403b1e:	89 10                	mov    %edx,(%rax)
  403b20:	90                   	nop
  403b21:	5d                   	pop    %rbp
  403b22:	c3                   	retq   
  403b23:	90                   	nop

0000000000403b24 <_ZN2vk5FlagsINS_13QueueFlagBitsEjEC1ERKS2_>:
  403b24:	55                   	push   %rbp
  403b25:	48 89 e5             	mov    %rsp,%rbp
  403b28:	48 89 7d f8          	mov    %rdi,-0x8(%rbp)
  403b2c:	48 89 75 f0          	mov    %rsi,-0x10(%rbp)
  403b30:	48 8b 45 f0          	mov    -0x10(%rbp),%rax
  403b34:	8b 10                	mov    (%rax),%edx
  403b36:	48 8b 45 f8          	mov    -0x8(%rbp),%rax
  403b3a:	89 10                	mov    %edx,(%rax)
  403b3c:	90                   	nop
  403b3d:	5d                   	pop    %rbp
  403b3e:	c3                   	retq   
  403b3f:	90                   	nop

0000000000403b40 <_ZN2vk5FlagsINS_33PipelineShaderStageCreateFlagBitsEjEC1Ev>:
  403b40:	55                   	push   %rbp
  403b41:	48 89 e5             	mov    %rsp,%rbp
  403b44:	48 89 7d f8          	mov    %rdi,-0x8(%rbp)
  403b48:	48 8b 45 f8          	mov    -0x8(%rbp),%rax
  403b4c:	c7 00 00 00 00 00    	movl   $0x0,(%rax)
  403b52:	90                   	nop
  403b53:	5d                   	pop    %rbp
  403b54:	c3                   	retq   
  403b55:	90                   	nop

0000000000403b56 <_ZN2vk5FlagsINS_22PipelineCreateFlagBitsEjEC1ERKS2_>:
  403b56:	55                   	push   %rbp
  403b57:	48 89 e5             	mov    %rsp,%rbp
  403b5a:	48 89 7d f8          	mov    %rdi,-0x8(%rbp)
  403b5e:	48 89 75 f0          	mov    %rsi,-0x10(%rbp)
  403b62:	48 8b 45 f0          	mov    -0x10(%rbp),%rax
  403b66:	8b 10                	mov    (%rax),%edx
  403b68:	48 8b 45 f8          	mov    -0x8(%rbp),%rax
  403b6c:	89 10                	mov    %edx,(%rax)
  403b6e:	90                   	nop
  403b6f:	5d                   	pop    %rbp
  403b70:	c3                   	retq   
  403b71:	90                   	nop

0000000000403b72 <_ZN2vk5FlagsINS_22PipelineCreateFlagBitsEjEC1Ev>:
  403b72:	55                   	push   %rbp
  403b73:	48 89 e5             	mov    %rsp,%rbp
  403b76:	48 89 7d f8          	mov    %rdi,-0x8(%rbp)
  403b7a:	48 8b 45 f8          	mov    -0x8(%rbp),%rax
  403b7e:	c7 00 00 00 00 00    	movl   $0x0,(%rax)
  403b84:	90                   	nop
  403b85:	5d                   	pop    %rbp
  403b86:	c3                   	retq   
  403b87:	90                   	nop

0000000000403b88 <_ZN2vk5FlagsINS_25CommandPoolCreateFlagBitsEjEC1ERKS2_>:
  403b88:	55                   	push   %rbp
  403b89:	48 89 e5             	mov    %rsp,%rbp
  403b8c:	48 89 7d f8          	mov    %rdi,-0x8(%rbp)
  403b90:	48 89 75 f0          	mov    %rsi,-0x10(%rbp)
  403b94:	48 8b 45 f0          	mov    -0x10(%rbp),%rax
  403b98:	8b 10                	mov    (%rax),%edx
  403b9a:	48 8b 45 f8          	mov    -0x8(%rbp),%rax
  403b9e:	89 10                	mov    %edx,(%rax)
  403ba0:	90                   	nop
  403ba1:	5d                   	pop    %rbp
  403ba2:	c3                   	retq   
  403ba3:	90                   	nop

0000000000403ba4 <_ZN2vk5FlagsINS_25CommandPoolCreateFlagBitsEjEC1Ev>:
  403ba4:	55                   	push   %rbp
  403ba5:	48 89 e5             	mov    %rsp,%rbp
  403ba8:	48 89 7d f8          	mov    %rdi,-0x8(%rbp)
  403bac:	48 8b 45 f8          	mov    -0x8(%rbp),%rax
  403bb0:	c7 00 00 00 00 00    	movl   $0x0,(%rax)
  403bb6:	90                   	nop
  403bb7:	5d                   	pop    %rbp
  403bb8:	c3                   	retq   
  403bb9:	90                   	nop

0000000000403bba <_ZN2vk5FlagsINS_22DebugReportFlagBitsEXTEjEC1ES1_>:
  403bba:	55                   	push   %rbp
  403bbb:	48 89 e5             	mov    %rsp,%rbp
  403bbe:	48 89 7d f8          	mov    %rdi,-0x8(%rbp)
  403bc2:	89 75 f4             	mov    %esi,-0xc(%rbp)
  403bc5:	8b 55 f4             	mov    -0xc(%rbp),%edx
  403bc8:	48 8b 45 f8          	mov    -0x8(%rbp),%rax
  403bcc:	89 10                	mov    %edx,(%rax)
  403bce:	90                   	nop
  403bcf:	5d                   	pop    %rbp
  403bd0:	c3                   	retq   
  403bd1:	90                   	nop

0000000000403bd2 <_ZNK2vk5FlagsINS_22DebugReportFlagBitsEXTEjEorERKS2_>:
  403bd2:	55                   	push   %rbp
  403bd3:	48 89 e5             	mov    %rsp,%rbp
  403bd6:	48 83 ec 20          	sub    $0x20,%rsp
  403bda:	48 89 7d f8          	mov    %rdi,-0x8(%rbp)
  403bde:	48 89 75 f0          	mov    %rsi,-0x10(%rbp)
  403be2:	48 89 55 e8          	mov    %rdx,-0x18(%rbp)
  403be6:	48 8b 55 f0          	mov    -0x10(%rbp),%rdx
  403bea:	48 8b 45 f8          	mov    -0x8(%rbp),%rax
  403bee:	48 89 d6             	mov    %rdx,%rsi
  403bf1:	48 89 c7             	mov    %rax,%rdi
  403bf4:	e8 1b 00 00 00       	callq  403c14 <_ZN2vk5FlagsINS_22DebugReportFlagBitsEXTEjEC1ERKS2_>
  403bf9:	48 8b 55 e8          	mov    -0x18(%rbp),%rdx
  403bfd:	48 8b 45 f8          	mov    -0x8(%rbp),%rax
  403c01:	48 89 d6             	mov    %rdx,%rsi
  403c04:	48 89 c7             	mov    %rax,%rdi
  403c07:	e8 08 07 00 00       	callq  404314 <_ZN2vk5FlagsINS_22DebugReportFlagBitsEXTEjEoRERKS2_>
  403c0c:	90                   	nop
  403c0d:	48 8b 45 f8          	mov    -0x8(%rbp),%rax
  403c11:	c9                   	leaveq 
  403c12:	c3                   	retq   
  403c13:	90                   	nop

0000000000403c14 <_ZN2vk5FlagsINS_22DebugReportFlagBitsEXTEjEC1ERKS2_>:
  403c14:	55                   	push   %rbp
  403c15:	48 89 e5             	mov    %rsp,%rbp
  403c18:	48 89 7d f8          	mov    %rdi,-0x8(%rbp)
  403c1c:	48 89 75 f0          	mov    %rsi,-0x10(%rbp)
  403c20:	48 8b 45 f0          	mov    -0x10(%rbp),%rax
  403c24:	8b 10                	mov    (%rax),%edx
  403c26:	48 8b 45 f8          	mov    -0x8(%rbp),%rax
  403c2a:	89 10                	mov    %edx,(%rax)
  403c2c:	90                   	nop
  403c2d:	5d                   	pop    %rbp
  403c2e:	c3                   	retq   
  403c2f:	90                   	nop

0000000000403c30 <_ZN2vk5FlagsINS_22DebugReportFlagBitsEXTEjEC1Ev>:
  403c30:	55                   	push   %rbp
  403c31:	48 89 e5             	mov    %rsp,%rbp
  403c34:	48 89 7d f8          	mov    %rdi,-0x8(%rbp)
  403c38:	48 8b 45 f8          	mov    -0x8(%rbp),%rax
  403c3c:	c7 00 00 00 00 00    	movl   $0x0,(%rax)
  403c42:	90                   	nop
  403c43:	5d                   	pop    %rbp
  403c44:	c3                   	retq   
  403c45:	90                   	nop

0000000000403c46 <_ZN2vk5FlagsINS_22DebugReportFlagBitsEXTEjEaSERKS2_>:
  403c46:	55                   	push   %rbp
  403c47:	48 89 e5             	mov    %rsp,%rbp
  403c4a:	48 89 7d f8          	mov    %rdi,-0x8(%rbp)
  403c4e:	48 89 75 f0          	mov    %rsi,-0x10(%rbp)
  403c52:	48 8b 45 f0          	mov    -0x10(%rbp),%rax
  403c56:	8b 10                	mov    (%rax),%edx
  403c58:	48 8b 45 f8          	mov    -0x8(%rbp),%rax
  403c5c:	89 10                	mov    %edx,(%rax)
  403c5e:	48 8b 45 f8          	mov    -0x8(%rbp),%rax
  403c62:	5d                   	pop    %rbp
  403c63:	c3                   	retq   

0000000000403c64 <_ZNK2vk8OptionalIKNS_19AllocationCallbacksEEcvPS2_Ev>:
  403c64:	55                   	push   %rbp
  403c65:	48 89 e5             	mov    %rsp,%rbp
  403c68:	48 89 7d f8          	mov    %rdi,-0x8(%rbp)
  403c6c:	48 8b 45 f8          	mov    -0x8(%rbp),%rax
  403c70:	48 8b 00             	mov    (%rax),%rax
  403c73:	5d                   	pop    %rbp
  403c74:	c3                   	retq   
  403c75:	90                   	nop

0000000000403c76 <_ZNK2vk5FlagsINS_13QueueFlagBitsEjEanERKS2_>:
  403c76:	55                   	push   %rbp
  403c77:	48 89 e5             	mov    %rsp,%rbp
  403c7a:	48 83 ec 20          	sub    $0x20,%rsp
  403c7e:	48 89 7d f8          	mov    %rdi,-0x8(%rbp)
  403c82:	48 89 75 f0          	mov    %rsi,-0x10(%rbp)
  403c86:	48 89 55 e8          	mov    %rdx,-0x18(%rbp)
  403c8a:	48 8b 55 f0          	mov    -0x10(%rbp),%rdx
  403c8e:	48 8b 45 f8          	mov    -0x8(%rbp),%rax
  403c92:	48 89 d6             	mov    %rdx,%rsi
  403c95:	48 89 c7             	mov    %rax,%rdi
  403c98:	e8 87 fe ff ff       	callq  403b24 <_ZN2vk5FlagsINS_13QueueFlagBitsEjEC1ERKS2_>
  403c9d:	48 8b 55 e8          	mov    -0x18(%rbp),%rdx
  403ca1:	48 8b 45 f8          	mov    -0x8(%rbp),%rax
  403ca5:	48 89 d6             	mov    %rdx,%rsi
  403ca8:	48 89 c7             	mov    %rax,%rdi
  403cab:	e8 8a 06 00 00       	callq  40433a <_ZN2vk5FlagsINS_13QueueFlagBitsEjEaNERKS2_>
  403cb0:	90                   	nop
  403cb1:	48 8b 45 f8          	mov    -0x8(%rbp),%rax
  403cb5:	c9                   	leaveq 
  403cb6:	c3                   	retq   
  403cb7:	90                   	nop

0000000000403cb8 <_ZNK2vk5FlagsINS_13QueueFlagBitsEjEcvbEv>:
  403cb8:	55                   	push   %rbp
  403cb9:	48 89 e5             	mov    %rsp,%rbp
  403cbc:	48 89 7d f8          	mov    %rdi,-0x8(%rbp)
  403cc0:	48 8b 45 f8          	mov    -0x8(%rbp),%rax
  403cc4:	8b 00                	mov    (%rax),%eax
  403cc6:	85 c0                	test   %eax,%eax
  403cc8:	0f 95 c0             	setne  %al
  403ccb:	5d                   	pop    %rbp
  403ccc:	c3                   	retq   
  403ccd:	90                   	nop

0000000000403cce <_ZNSt6vectorIjSaIjEEC1Ev>:
  403cce:	55                   	push   %rbp
  403ccf:	48 89 e5             	mov    %rsp,%rbp
  403cd2:	48 83 ec 10          	sub    $0x10,%rsp
  403cd6:	48 89 7d f8          	mov    %rdi,-0x8(%rbp)
  403cda:	48 8b 45 f8          	mov    -0x8(%rbp),%rax
  403cde:	48 89 c7             	mov    %rax,%rdi
  403ce1:	e8 96 06 00 00       	callq  40437c <_ZNSt12_Vector_baseIjSaIjEEC1Ev>
  403ce6:	90                   	nop
  403ce7:	c9                   	leaveq 
  403ce8:	c3                   	retq   
  403ce9:	90                   	nop

0000000000403cea <_ZNSt6vectorIjSaIjEED1Ev>:
  403cea:	55                   	push   %rbp
  403ceb:	48 89 e5             	mov    %rsp,%rbp
  403cee:	48 83 ec 10          	sub    $0x10,%rsp
  403cf2:	48 89 7d f8          	mov    %rdi,-0x8(%rbp)
  403cf6:	48 8b 45 f8          	mov    -0x8(%rbp),%rax
  403cfa:	48 89 c7             	mov    %rax,%rdi
  403cfd:	e8 e6 06 00 00       	callq  4043e8 <_ZNSt12_Vector_baseIjSaIjEE19_M_get_Tp_allocatorEv>
  403d02:	48 89 c2             	mov    %rax,%rdx
  403d05:	48 8b 45 f8          	mov    -0x8(%rbp),%rax
  403d09:	48 8b 48 08          	mov    0x8(%rax),%rcx
  403d0d:	48 8b 45 f8          	mov    -0x8(%rbp),%rax
  403d11:	48 8b 00             	mov    (%rax),%rax
  403d14:	48 89 ce             	mov    %rcx,%rsi
  403d17:	48 89 c7             	mov    %rax,%rdi
  403d1a:	e8 d7 06 00 00       	callq  4043f6 <_ZSt8_DestroyIPjjEvT_S1_RSaIT0_E>
  403d1f:	48 8b 45 f8          	mov    -0x8(%rbp),%rax
  403d23:	48 89 c7             	mov    %rax,%rdi
  403d26:	e8 6d 06 00 00       	callq  404398 <_ZNSt12_Vector_baseIjSaIjEED1Ev>
  403d2b:	90                   	nop
  403d2c:	c9                   	leaveq 
  403d2d:	c3                   	retq   

0000000000403d2e <_ZSt4moveIRjEONSt16remove_referenceIT_E4typeEOS2_>:
  403d2e:	55                   	push   %rbp
  403d2f:	48 89 e5             	mov    %rsp,%rbp
  403d32:	48 89 7d f8          	mov    %rdi,-0x8(%rbp)
  403d36:	48 8b 45 f8          	mov    -0x8(%rbp),%rax
  403d3a:	5d                   	pop    %rbp
  403d3b:	c3                   	retq   

0000000000403d3c <_ZNSt6vectorIjSaIjEE9push_backEOj>:
  403d3c:	55                   	push   %rbp
  403d3d:	48 89 e5             	mov    %rsp,%rbp
  403d40:	48 83 ec 10          	sub    $0x10,%rsp
  403d44:	48 89 7d f8          	mov    %rdi,-0x8(%rbp)
  403d48:	48 89 75 f0          	mov    %rsi,-0x10(%rbp)
  403d4c:	48 8b 45 f0          	mov    -0x10(%rbp),%rax
  403d50:	48 89 c7             	mov    %rax,%rdi
  403d53:	e8 d6 ff ff ff       	callq  403d2e <_ZSt4moveIRjEONSt16remove_referenceIT_E4typeEOS2_>
  403d58:	48 89 c2             	mov    %rax,%rdx
  403d5b:	48 8b 45 f8          	mov    -0x8(%rbp),%rax
  403d5f:	48 89 d6             	mov    %rdx,%rsi
  403d62:	48 89 c7             	mov    %rax,%rdi
  403d65:	e8 c4 06 00 00       	callq  40442e <_ZNSt6vectorIjSaIjEE12emplace_backIJjEEEvDpOT_>
  403d6a:	90                   	nop
  403d6b:	c9                   	leaveq 
  403d6c:	c3                   	retq   
  403d6d:	90                   	nop

0000000000403d6e <_ZNSt6vectorIjSaIjEEC1EOS1_>:
  403d6e:	55                   	push   %rbp
  403d6f:	48 89 e5             	mov    %rsp,%rbp
  403d72:	48 83 ec 10          	sub    $0x10,%rsp
  403d76:	48 89 7d f8          	mov    %rdi,-0x8(%rbp)
  403d7a:	48 89 75 f0          	mov    %rsi,-0x10(%rbp)
  403d7e:	48 8b 45 f0          	mov    -0x10(%rbp),%rax
  403d82:	48 89 c7             	mov    %rax,%rdi
  403d85:	e8 9a fb ff ff       	callq  403924 <_ZSt4moveIRSt6vectorIjSaIjEEEONSt16remove_referenceIT_E4typeEOS5_>
  403d8a:	48 89 c2             	mov    %rax,%rdx
  403d8d:	48 8b 45 f8          	mov    -0x8(%rbp),%rax
  403d91:	48 89 d6             	mov    %rdx,%rsi
  403d94:	48 89 c7             	mov    %rax,%rdi
  403d97:	e8 22 07 00 00       	callq  4044be <_ZNSt12_Vector_baseIjSaIjEEC1EOS1_>
  403d9c:	90                   	nop
  403d9d:	c9                   	leaveq 
  403d9e:	c3                   	retq   
  403d9f:	90                   	nop

0000000000403da0 <_ZNSt6vectorIPjSaIS0_EEC1Ev>:
  403da0:	55                   	push   %rbp
  403da1:	48 89 e5             	mov    %rsp,%rbp
  403da4:	48 83 ec 10          	sub    $0x10,%rsp
  403da8:	48 89 7d f8          	mov    %rdi,-0x8(%rbp)
  403dac:	48 8b 45 f8          	mov    -0x8(%rbp),%rax
  403db0:	48 89 c7             	mov    %rax,%rdi
  403db3:	e8 6e 07 00 00       	callq  404526 <_ZNSt12_Vector_baseIPjSaIS0_EEC1Ev>
  403db8:	90                   	nop
  403db9:	c9                   	leaveq 
  403dba:	c3                   	retq   
  403dbb:	90                   	nop

0000000000403dbc <_ZNSt6vectorIPjSaIS0_EED1Ev>:
  403dbc:	55                   	push   %rbp
  403dbd:	48 89 e5             	mov    %rsp,%rbp
  403dc0:	48 83 ec 10          	sub    $0x10,%rsp
  403dc4:	48 89 7d f8          	mov    %rdi,-0x8(%rbp)
  403dc8:	48 8b 45 f8          	mov    -0x8(%rbp),%rax
  403dcc:	48 89 c7             	mov    %rax,%rdi
  403dcf:	e8 be 07 00 00       	callq  404592 <_ZNSt12_Vector_baseIPjSaIS0_EE19_M_get_Tp_allocatorEv>
  403dd4:	48 89 c2             	mov    %rax,%rdx
  403dd7:	48 8b 45 f8          	mov    -0x8(%rbp),%rax
  403ddb:	48 8b 48 08          	mov    0x8(%rax),%rcx
  403ddf:	48 8b 45 f8          	mov    -0x8(%rbp),%rax
  403de3:	48 8b 00             	mov    (%rax),%rax
  403de6:	48 89 ce             	mov    %rcx,%rsi
  403de9:	48 89 c7             	mov    %rax,%rdi
  403dec:	e8 af 07 00 00       	callq  4045a0 <_ZSt8_DestroyIPPjS0_EvT_S2_RSaIT0_E>
  403df1:	48 8b 45 f8          	mov    -0x8(%rbp),%rax
  403df5:	48 89 c7             	mov    %rax,%rdi
  403df8:	e8 45 07 00 00       	callq  404542 <_ZNSt12_Vector_baseIPjSaIS0_EED1Ev>
  403dfd:	90                   	nop
  403dfe:	c9                   	leaveq 
  403dff:	c3                   	retq   

0000000000403e00 <_ZNSt6vectorIPjSaIS0_EE9push_backERKS0_>:
  403e00:	55                   	push   %rbp
  403e01:	48 89 e5             	mov    %rsp,%rbp
  403e04:	48 83 ec 10          	sub    $0x10,%rsp
  403e08:	48 89 7d f8          	mov    %rdi,-0x8(%rbp)
  403e0c:	48 89 75 f0          	mov    %rsi,-0x10(%rbp)
  403e10:	48 8b 45 f8          	mov    -0x8(%rbp),%rax
  403e14:	48 8b 50 08          	mov    0x8(%rax),%rdx
  403e18:	48 8b 45 f8          	mov    -0x8(%rbp),%rax
  403e1c:	48 8b 40 10          	mov    0x10(%rax),%rax
  403e20:	48 39 c2             	cmp    %rax,%rdx
  403e23:	74 31                	je     403e56 <_ZNSt6vectorIPjSaIS0_EE9push_backERKS0_+0x56>
  403e25:	48 8b 45 f8          	mov    -0x8(%rbp),%rax
  403e29:	48 8b 48 08          	mov    0x8(%rax),%rcx
  403e2d:	48 8b 45 f8          	mov    -0x8(%rbp),%rax
  403e31:	48 8b 55 f0          	mov    -0x10(%rbp),%rdx
  403e35:	48 89 ce             	mov    %rcx,%rsi
  403e38:	48 89 c7             	mov    %rax,%rdi
  403e3b:	e8 98 07 00 00       	callq  4045d8 <_ZNSt16allocator_traitsISaIPjEE9constructIS0_JRKS0_EEEvRS1_PT_DpOT0_>
  403e40:	48 8b 45 f8          	mov    -0x8(%rbp),%rax
  403e44:	48 8b 40 08          	mov    0x8(%rax),%rax
  403e48:	48 8d 50 08          	lea    0x8(%rax),%rdx
  403e4c:	48 8b 45 f8          	mov    -0x8(%rbp),%rax
  403e50:	48 89 50 08          	mov    %rdx,0x8(%rax)
  403e54:	eb 13                	jmp    403e69 <_ZNSt6vectorIPjSaIS0_EE9push_backERKS0_+0x69>
  403e56:	48 8b 55 f0          	mov    -0x10(%rbp),%rdx
  403e5a:	48 8b 45 f8          	mov    -0x8(%rbp),%rax
  403e5e:	48 89 d6             	mov    %rdx,%rsi
  403e61:	48 89 c7             	mov    %rax,%rdi
  403e64:	e8 a9 07 00 00       	callq  404612 <_ZNSt6vectorIPjSaIS0_EE19_M_emplace_back_auxIJRKS0_EEEvDpOT_>
  403e69:	90                   	nop
  403e6a:	c9                   	leaveq 
  403e6b:	c3                   	retq   

0000000000403e6c <_ZNSt6vectorIPjSaIS0_EEC1EOS2_>:
  403e6c:	55                   	push   %rbp
  403e6d:	48 89 e5             	mov    %rsp,%rbp
  403e70:	48 83 ec 10          	sub    $0x10,%rsp
  403e74:	48 89 7d f8          	mov    %rdi,-0x8(%rbp)
  403e78:	48 89 75 f0          	mov    %rsi,-0x10(%rbp)
  403e7c:	48 8b 45 f0          	mov    -0x10(%rbp),%rax
  403e80:	48 89 c7             	mov    %rax,%rdi
  403e83:	e8 aa fa ff ff       	callq  403932 <_ZSt4moveIRSt6vectorIPjSaIS1_EEEONSt16remove_referenceIT_E4typeEOS6_>
  403e88:	48 89 c2             	mov    %rax,%rdx
  403e8b:	48 8b 45 f8          	mov    -0x8(%rbp),%rax
  403e8f:	48 89 d6             	mov    %rdx,%rsi
  403e92:	48 89 c7             	mov    %rax,%rdi
  403e95:	e8 70 09 00 00       	callq  40480a <_ZNSt12_Vector_baseIPjSaIS0_EEC1EOS2_>
  403e9a:	90                   	nop
  403e9b:	c9                   	leaveq 
  403e9c:	c3                   	retq   
  403e9d:	90                   	nop

0000000000403e9e <_ZNSt6vectorIN2vk19ShaderStageFlagBitsESaIS1_EEC1Ev>:
  403e9e:	55                   	push   %rbp
  403e9f:	48 89 e5             	mov    %rsp,%rbp
  403ea2:	48 83 ec 10          	sub    $0x10,%rsp
  403ea6:	48 89 7d f8          	mov    %rdi,-0x8(%rbp)
  403eaa:	48 8b 45 f8          	mov    -0x8(%rbp),%rax
  403eae:	48 89 c7             	mov    %rax,%rdi
  403eb1:	e8 bc 09 00 00       	callq  404872 <_ZNSt12_Vector_baseIN2vk19ShaderStageFlagBitsESaIS1_EEC1Ev>
  403eb6:	90                   	nop
  403eb7:	c9                   	leaveq 
  403eb8:	c3                   	retq   
  403eb9:	90                   	nop

0000000000403eba <_ZNSt6vectorIN2vk19ShaderStageFlagBitsESaIS1_EED1Ev>:
  403eba:	55                   	push   %rbp
  403ebb:	48 89 e5             	mov    %rsp,%rbp
  403ebe:	48 83 ec 10          	sub    $0x10,%rsp
  403ec2:	48 89 7d f8          	mov    %rdi,-0x8(%rbp)
  403ec6:	48 8b 45 f8          	mov    -0x8(%rbp),%rax
  403eca:	48 89 c7             	mov    %rax,%rdi
  403ecd:	e8 0c 0a 00 00       	callq  4048de <_ZNSt12_Vector_baseIN2vk19ShaderStageFlagBitsESaIS1_EE19_M_get_Tp_allocatorEv>
  403ed2:	48 89 c2             	mov    %rax,%rdx
  403ed5:	48 8b 45 f8          	mov    -0x8(%rbp),%rax
  403ed9:	48 8b 48 08          	mov    0x8(%rax),%rcx
  403edd:	48 8b 45 f8          	mov    -0x8(%rbp),%rax
  403ee1:	48 8b 00             	mov    (%rax),%rax
  403ee4:	48 89 ce             	mov    %rcx,%rsi
  403ee7:	48 89 c7             	mov    %rax,%rdi
  403eea:	e8 fd 09 00 00       	callq  4048ec <_ZSt8_DestroyIPN2vk19ShaderStageFlagBitsES1_EvT_S3_RSaIT0_E>
  403eef:	48 8b 45 f8          	mov    -0x8(%rbp),%rax
  403ef3:	48 89 c7             	mov    %rax,%rdi
  403ef6:	e8 93 09 00 00       	callq  40488e <_ZNSt12_Vector_baseIN2vk19ShaderStageFlagBitsESaIS1_EED1Ev>
  403efb:	90                   	nop
  403efc:	c9                   	leaveq 
  403efd:	c3                   	retq   

0000000000403efe <_ZSt4moveIRN2vk19ShaderStageFlagBitsEEONSt16remove_referenceIT_E4typeEOS4_>:
  403efe:	55                   	push   %rbp
  403eff:	48 89 e5             	mov    %rsp,%rbp
  403f02:	48 89 7d f8          	mov    %rdi,-0x8(%rbp)
  403f06:	48 8b 45 f8          	mov    -0x8(%rbp),%rax
  403f0a:	5d                   	pop    %rbp
  403f0b:	c3                   	retq   

0000000000403f0c <_ZNSt6vectorIN2vk19ShaderStageFlagBitsESaIS1_EE9push_backEOS1_>:
  403f0c:	55                   	push   %rbp
  403f0d:	48 89 e5             	mov    %rsp,%rbp
  403f10:	48 83 ec 10          	sub    $0x10,%rsp
  403f14:	48 89 7d f8          	mov    %rdi,-0x8(%rbp)
  403f18:	48 89 75 f0          	mov    %rsi,-0x10(%rbp)
  403f1c:	48 8b 45 f0          	mov    -0x10(%rbp),%rax
  403f20:	48 89 c7             	mov    %rax,%rdi
  403f23:	e8 d6 ff ff ff       	callq  403efe <_ZSt4moveIRN2vk19ShaderStageFlagBitsEEONSt16remove_referenceIT_E4typeEOS4_>
  403f28:	48 89 c2             	mov    %rax,%rdx
  403f2b:	48 8b 45 f8          	mov    -0x8(%rbp),%rax
  403f2f:	48 89 d6             	mov    %rdx,%rsi
  403f32:	48 89 c7             	mov    %rax,%rdi
  403f35:	e8 ea 09 00 00       	callq  404924 <_ZNSt6vectorIN2vk19ShaderStageFlagBitsESaIS1_EE12emplace_backIJS1_EEEvDpOT_>
  403f3a:	90                   	nop
  403f3b:	c9                   	leaveq 
  403f3c:	c3                   	retq   
  403f3d:	90                   	nop

0000000000403f3e <_ZNSt6vectorIN2vk19ShaderStageFlagBitsESaIS1_EEC1EOS3_>:
  403f3e:	55                   	push   %rbp
  403f3f:	48 89 e5             	mov    %rsp,%rbp
  403f42:	48 83 ec 10          	sub    $0x10,%rsp
  403f46:	48 89 7d f8          	mov    %rdi,-0x8(%rbp)
  403f4a:	48 89 75 f0          	mov    %rsi,-0x10(%rbp)
  403f4e:	48 8b 45 f0          	mov    -0x10(%rbp),%rax
  403f52:	48 89 c7             	mov    %rax,%rdi
  403f55:	e8 e6 f9 ff ff       	callq  403940 <_ZSt4moveIRSt6vectorIN2vk19ShaderStageFlagBitsESaIS2_EEEONSt16remove_referenceIT_E4typeEOS7_>
  403f5a:	48 89 c2             	mov    %rax,%rdx
  403f5d:	48 8b 45 f8          	mov    -0x8(%rbp),%rax
  403f61:	48 89 d6             	mov    %rdx,%rsi
  403f64:	48 89 c7             	mov    %rax,%rdi
  403f67:	e8 48 0a 00 00       	callq  4049b4 <_ZNSt12_Vector_baseIN2vk19ShaderStageFlagBitsESaIS1_EEC1EOS3_>
  403f6c:	90                   	nop
  403f6d:	c9                   	leaveq 
  403f6e:	c3                   	retq   
  403f6f:	90                   	nop

0000000000403f70 <_ZN2vk8OptionalIKNS_19AllocationCallbacksEEC1EDn>:
  403f70:	55                   	push   %rbp
  403f71:	48 89 e5             	mov    %rsp,%rbp
  403f74:	48 89 7d f8          	mov    %rdi,-0x8(%rbp)
  403f78:	48 89 75 f0          	mov    %rsi,-0x10(%rbp)
  403f7c:	48 8b 45 f8          	mov    -0x8(%rbp),%rax
  403f80:	48 c7 00 00 00 00 00 	movq   $0x0,(%rax)
  403f87:	90                   	nop
  403f88:	5d                   	pop    %rbp
  403f89:	c3                   	retq   

0000000000403f8a <_ZNK2vk8Instance24enumeratePhysicalDevicesISaINS_14PhysicalDeviceEEEENS_15ResultValueTypeISt6vectorIS2_T_EE4typeEv>:
  403f8a:	55                   	push   %rbp
  403f8b:	48 89 e5             	mov    %rsp,%rbp
  403f8e:	41 54                	push   %r12
  403f90:	53                   	push   %rbx
  403f91:	48 83 ec 60          	sub    $0x60,%rsp
  403f95:	48 89 7d 98          	mov    %rdi,-0x68(%rbp)
  403f99:	48 89 75 90          	mov    %rsi,-0x70(%rbp)
  403f9d:	48 8d 45 b0          	lea    -0x50(%rbp),%rax
  403fa1:	48 89 c7             	mov    %rax,%rdi
  403fa4:	e8 57 0a 00 00       	callq  404a00 <_ZNSt6vectorIN2vk14PhysicalDeviceESaIS1_EEC1Ev>
  403fa9:	48 8b 45 90          	mov    -0x70(%rbp),%rax
  403fad:	48 8b 00             	mov    (%rax),%rax
  403fb0:	48 8d 4d ac          	lea    -0x54(%rbp),%rcx
  403fb4:	ba 00 00 00 00       	mov    $0x0,%edx
  403fb9:	48 89 ce             	mov    %rcx,%rsi
  403fbc:	48 89 c7             	mov    %rax,%rdi
  403fbf:	e8 cc d4 ff ff       	callq  401490 <vkEnumeratePhysicalDevices@plt>
  403fc4:	89 45 ec             	mov    %eax,-0x14(%rbp)
  403fc7:	83 7d ec 00          	cmpl   $0x0,-0x14(%rbp)
  403fcb:	75 43                	jne    404010 <_ZNK2vk8Instance24enumeratePhysicalDevicesISaINS_14PhysicalDeviceEEEENS_15ResultValueTypeISt6vectorIS2_T_EE4typeEv+0x86>
  403fcd:	8b 45 ac             	mov    -0x54(%rbp),%eax
  403fd0:	85 c0                	test   %eax,%eax
  403fd2:	74 3c                	je     404010 <_ZNK2vk8Instance24enumeratePhysicalDevicesISaINS_14PhysicalDeviceEEEENS_15ResultValueTypeISt6vectorIS2_T_EE4typeEv+0x86>
  403fd4:	8b 45 ac             	mov    -0x54(%rbp),%eax
  403fd7:	89 c2                	mov    %eax,%edx
  403fd9:	48 8d 45 b0          	lea    -0x50(%rbp),%rax
  403fdd:	48 89 d6             	mov    %rdx,%rsi
  403fe0:	48 89 c7             	mov    %rax,%rdi
  403fe3:	e8 34 0a 00 00       	callq  404a1c <_ZNSt6vectorIN2vk14PhysicalDeviceESaIS1_EE6resizeEm>
  403fe8:	48 8d 45 b0          	lea    -0x50(%rbp),%rax
  403fec:	48 89 c7             	mov    %rax,%rdi
  403fef:	e8 b4 0a 00 00       	callq  404aa8 <_ZNSt6vectorIN2vk14PhysicalDeviceESaIS1_EE4dataEv>
  403ff4:	48 89 c2             	mov    %rax,%rdx
  403ff7:	48 8b 45 90          	mov    -0x70(%rbp),%rax
  403ffb:	48 8b 00             	mov    (%rax),%rax
  403ffe:	48 8d 4d ac          	lea    -0x54(%rbp),%rcx
  404002:	48 89 ce             	mov    %rcx,%rsi
  404005:	48 89 c7             	mov    %rax,%rdi
  404008:	e8 83 d4 ff ff       	callq  401490 <vkEnumeratePhysicalDevices@plt>
  40400d:	89 45 ec             	mov    %eax,-0x14(%rbp)
  404010:	83 7d ec 05          	cmpl   $0x5,-0x14(%rbp)
  404014:	75 02                	jne    404018 <_ZNK2vk8Instance24enumeratePhysicalDevicesISaINS_14PhysicalDeviceEEEENS_15ResultValueTypeISt6vectorIS2_T_EE4typeEv+0x8e>
  404016:	eb 91                	jmp    403fa9 <_ZNK2vk8Instance24enumeratePhysicalDevicesISaINS_14PhysicalDeviceEEEENS_15ResultValueTypeISt6vectorIS2_T_EE4typeEv+0x1f>
  404018:	8b 45 ac             	mov    -0x54(%rbp),%eax
  40401b:	89 c3                	mov    %eax,%ebx
  40401d:	48 8d 45 b0          	lea    -0x50(%rbp),%rax
  404021:	48 89 c7             	mov    %rax,%rdi
  404024:	e8 a3 0a 00 00       	callq  404acc <_ZNKSt6vectorIN2vk14PhysicalDeviceESaIS1_EE4sizeEv>
  404029:	48 39 c3             	cmp    %rax,%rbx
  40402c:	76 19                	jbe    404047 <_ZNK2vk8Instance24enumeratePhysicalDevicesISaINS_14PhysicalDeviceEEEENS_15ResultValueTypeISt6vectorIS2_T_EE4typeEv+0xbd>
  40402e:	b9 40 84 40 00       	mov    $0x408440,%ecx
  404033:	ba 0f 55 00 00       	mov    $0x550f,%edx
  404038:	be 90 83 40 00       	mov    $0x408390,%esi
  40403d:	bf b0 83 40 00       	mov    $0x4083b0,%edi
  404042:	e8 89 d4 ff ff       	callq  4014d0 <__assert_fail@plt>
  404047:	8b 45 ac             	mov    -0x54(%rbp),%eax
  40404a:	89 c2                	mov    %eax,%edx
  40404c:	48 8d 45 b0          	lea    -0x50(%rbp),%rax
  404050:	48 89 d6             	mov    %rdx,%rsi
  404053:	48 89 c7             	mov    %rax,%rdi
  404056:	e8 c1 09 00 00       	callq  404a1c <_ZNSt6vectorIN2vk14PhysicalDeviceESaIS1_EE6resizeEm>
  40405b:	8b 45 ec             	mov    -0x14(%rbp),%eax
  40405e:	89 45 e8             	mov    %eax,-0x18(%rbp)
  404061:	48 c7 45 e0 e0 83 40 	movq   $0x4083e0,-0x20(%rbp)
  404068:	00 
  404069:	83 7d e8 00          	cmpl   $0x0,-0x18(%rbp)
  40406d:	74 48                	je     4040b7 <_ZNK2vk8Instance24enumeratePhysicalDevicesISaINS_14PhysicalDeviceEEEENS_15ResultValueTypeISt6vectorIS2_T_EE4typeEv+0x12d>
  40406f:	bf 20 00 00 00       	mov    $0x20,%edi
  404074:	e8 f7 d3 ff ff       	callq  401470 <__cxa_allocate_exception@plt>
  404079:	48 89 c3             	mov    %rax,%rbx
  40407c:	8b 55 e8             	mov    -0x18(%rbp),%edx
  40407f:	48 8d 45 d0          	lea    -0x30(%rbp),%rax
  404083:	89 d6                	mov    %edx,%esi
  404085:	48 89 c7             	mov    %rax,%rdi
  404088:	e8 19 f9 ff ff       	callq  4039a6 <_ZNSt10error_codeC1IN2vk6ResultEvEET_>
  40408d:	48 8b 4d e0          	mov    -0x20(%rbp),%rcx
  404091:	8b 55 d0             	mov    -0x30(%rbp),%edx
  404094:	48 8b 45 d8          	mov    -0x28(%rbp),%rax
  404098:	89 d6                	mov    %edx,%esi
  40409a:	48 89 c2             	mov    %rax,%rdx
  40409d:	48 89 df             	mov    %rbx,%rdi
  4040a0:	e8 b9 e4 ff ff       	callq  40255e <_ZNSt12system_errorC1ESt10error_codePKc>
  4040a5:	ba 80 15 40 00       	mov    $0x401580,%edx
  4040aa:	be a0 d4 60 00       	mov    $0x60d4a0,%esi
  4040af:	48 89 df             	mov    %rbx,%rdi
  4040b2:	e8 79 d5 ff ff       	callq  401630 <__cxa_throw@plt>
  4040b7:	48 8d 55 b0          	lea    -0x50(%rbp),%rdx
  4040bb:	48 8b 45 98          	mov    -0x68(%rbp),%rax
  4040bf:	48 89 d6             	mov    %rdx,%rsi
  4040c2:	48 89 c7             	mov    %rax,%rdi
  4040c5:	e8 58 19 00 00       	callq  405a22 <_ZNSt6vectorIN2vk14PhysicalDeviceESaIS1_EEC1ERKS3_>
  4040ca:	90                   	nop
  4040cb:	48 8d 45 b0          	lea    -0x50(%rbp),%rax
  4040cf:	48 89 c7             	mov    %rax,%rdi
  4040d2:	e8 39 00 00 00       	callq  404110 <_ZNSt6vectorIN2vk14PhysicalDeviceESaIS1_EED1Ev>
  4040d7:	eb 2a                	jmp    404103 <_ZNK2vk8Instance24enumeratePhysicalDevicesISaINS_14PhysicalDeviceEEEENS_15ResultValueTypeISt6vectorIS2_T_EE4typeEv+0x179>
  4040d9:	49 89 c4             	mov    %rax,%r12
  4040dc:	48 89 df             	mov    %rbx,%rdi
  4040df:	e8 fc d3 ff ff       	callq  4014e0 <__cxa_free_exception@plt>
  4040e4:	4c 89 e3             	mov    %r12,%rbx
  4040e7:	eb 03                	jmp    4040ec <_ZNK2vk8Instance24enumeratePhysicalDevicesISaINS_14PhysicalDeviceEEEENS_15ResultValueTypeISt6vectorIS2_T_EE4typeEv+0x162>
  4040e9:	48 89 c3             	mov    %rax,%rbx
  4040ec:	48 8d 45 b0          	lea    -0x50(%rbp),%rax
  4040f0:	48 89 c7             	mov    %rax,%rdi
  4040f3:	e8 18 00 00 00       	callq  404110 <_ZNSt6vectorIN2vk14PhysicalDeviceESaIS1_EED1Ev>
  4040f8:	48 89 d8             	mov    %rbx,%rax
  4040fb:	48 89 c7             	mov    %rax,%rdi
  4040fe:	e8 4d d5 ff ff       	callq  401650 <_Unwind_Resume@plt>
  404103:	48 8b 45 98          	mov    -0x68(%rbp),%rax
  404107:	48 83 c4 60          	add    $0x60,%rsp
  40410b:	5b                   	pop    %rbx
  40410c:	41 5c                	pop    %r12
  40410e:	5d                   	pop    %rbp
  40410f:	c3                   	retq   

0000000000404110 <_ZNSt6vectorIN2vk14PhysicalDeviceESaIS1_EED1Ev>:
  404110:	55                   	push   %rbp
  404111:	48 89 e5             	mov    %rsp,%rbp
  404114:	48 83 ec 10          	sub    $0x10,%rsp
  404118:	48 89 7d f8          	mov    %rdi,-0x8(%rbp)
  40411c:	48 8b 45 f8          	mov    -0x8(%rbp),%rax
  404120:	48 89 c7             	mov    %rax,%rdi
  404123:	e8 36 0a 00 00       	callq  404b5e <_ZNSt12_Vector_baseIN2vk14PhysicalDeviceESaIS1_EE19_M_get_Tp_allocatorEv>
  404128:	48 89 c2             	mov    %rax,%rdx
  40412b:	48 8b 45 f8          	mov    -0x8(%rbp),%rax
  40412f:	48 8b 48 08          	mov    0x8(%rax),%rcx
  404133:	48 8b 45 f8          	mov    -0x8(%rbp),%rax
  404137:	48 8b 00             	mov    (%rax),%rax
  40413a:	48 89 ce             	mov    %rcx,%rsi
  40413d:	48 89 c7             	mov    %rax,%rdi
  404140:	e8 27 0a 00 00       	callq  404b6c <_ZSt8_DestroyIPN2vk14PhysicalDeviceES1_EvT_S3_RSaIT0_E>
  404145:	48 8b 45 f8          	mov    -0x8(%rbp),%rax
  404149:	48 89 c7             	mov    %rax,%rdi
  40414c:	e8 bd 09 00 00       	callq  404b0e <_ZNSt12_Vector_baseIN2vk14PhysicalDeviceESaIS1_EED1Ev>
  404151:	90                   	nop
  404152:	c9                   	leaveq 
  404153:	c3                   	retq   

0000000000404154 <_ZNSt6vectorIN2vk14PhysicalDeviceESaIS1_EEixEm>:
  404154:	55                   	push   %rbp
  404155:	48 89 e5             	mov    %rsp,%rbp
  404158:	48 89 7d f8          	mov    %rdi,-0x8(%rbp)
  40415c:	48 89 75 f0          	mov    %rsi,-0x10(%rbp)
  404160:	48 8b 45 f8          	mov    -0x8(%rbp),%rax
  404164:	48 8b 00             	mov    (%rax),%rax
  404167:	48 8b 55 f0          	mov    -0x10(%rbp),%rdx
  40416b:	48 c1 e2 03          	shl    $0x3,%rdx
  40416f:	48 01 d0             	add    %rdx,%rax
  404172:	5d                   	pop    %rbp
  404173:	c3                   	retq   

0000000000404174 <_ZNK2vk14PhysicalDevice24getQueueFamilyPropertiesISaINS_21QueueFamilyPropertiesEEEESt6vectorIS2_T_Ev>:
  404174:	55                   	push   %rbp
  404175:	48 89 e5             	mov    %rsp,%rbp
  404178:	53                   	push   %rbx
  404179:	48 83 ec 28          	sub    $0x28,%rsp
  40417d:	48 89 7d d8          	mov    %rdi,-0x28(%rbp)
  404181:	48 89 75 d0          	mov    %rsi,-0x30(%rbp)
  404185:	48 8b 45 d8          	mov    -0x28(%rbp),%rax
  404189:	48 89 c7             	mov    %rax,%rdi
  40418c:	e8 05 0a 00 00       	callq  404b96 <_ZNSt6vectorIN2vk21QueueFamilyPropertiesESaIS1_EEC1Ev>
  404191:	48 8b 45 d0          	mov    -0x30(%rbp),%rax
  404195:	48 8b 00             	mov    (%rax),%rax
  404198:	48 8d 4d ec          	lea    -0x14(%rbp),%rcx
  40419c:	ba 00 00 00 00       	mov    $0x0,%edx
  4041a1:	48 89 ce             	mov    %rcx,%rsi
  4041a4:	48 89 c7             	mov    %rax,%rdi
  4041a7:	e8 54 d3 ff ff       	callq  401500 <vkGetPhysicalDeviceQueueFamilyProperties@plt>
  4041ac:	8b 45 ec             	mov    -0x14(%rbp),%eax
  4041af:	89 c2                	mov    %eax,%edx
  4041b1:	48 8b 45 d8          	mov    -0x28(%rbp),%rax
  4041b5:	48 89 d6             	mov    %rdx,%rsi
  4041b8:	48 89 c7             	mov    %rax,%rdi
  4041bb:	e8 f2 09 00 00       	callq  404bb2 <_ZNSt6vectorIN2vk21QueueFamilyPropertiesESaIS1_EE6resizeEm>
  4041c0:	48 8b 45 d8          	mov    -0x28(%rbp),%rax
  4041c4:	48 89 c7             	mov    %rax,%rdi
  4041c7:	e8 7c 0a 00 00       	callq  404c48 <_ZNSt6vectorIN2vk21QueueFamilyPropertiesESaIS1_EE4dataEv>
  4041cc:	48 89 c2             	mov    %rax,%rdx
  4041cf:	48 8b 45 d0          	mov    -0x30(%rbp),%rax
  4041d3:	48 8b 00             	mov    (%rax),%rax
  4041d6:	48 8d 4d ec          	lea    -0x14(%rbp),%rcx
  4041da:	48 89 ce             	mov    %rcx,%rsi
  4041dd:	48 89 c7             	mov    %rax,%rdi
  4041e0:	e8 1b d3 ff ff       	callq  401500 <vkGetPhysicalDeviceQueueFamilyProperties@plt>
  4041e5:	90                   	nop
  4041e6:	eb 1a                	jmp    404202 <_ZNK2vk14PhysicalDevice24getQueueFamilyPropertiesISaINS_21QueueFamilyPropertiesEEEESt6vectorIS2_T_Ev+0x8e>
  4041e8:	48 89 c3             	mov    %rax,%rbx
  4041eb:	48 8b 45 d8          	mov    -0x28(%rbp),%rax
  4041ef:	48 89 c7             	mov    %rax,%rdi
  4041f2:	e8 17 00 00 00       	callq  40420e <_ZNSt6vectorIN2vk21QueueFamilyPropertiesESaIS1_EED1Ev>
  4041f7:	48 89 d8             	mov    %rbx,%rax
  4041fa:	48 89 c7             	mov    %rax,%rdi
  4041fd:	e8 4e d4 ff ff       	callq  401650 <_Unwind_Resume@plt>
  404202:	48 8b 45 d8          	mov    -0x28(%rbp),%rax
  404206:	48 83 c4 28          	add    $0x28,%rsp
  40420a:	5b                   	pop    %rbx
  40420b:	5d                   	pop    %rbp
  40420c:	c3                   	retq   
  40420d:	90                   	nop

000000000040420e <_ZNSt6vectorIN2vk21QueueFamilyPropertiesESaIS1_EED1Ev>:
  40420e:	55                   	push   %rbp
  40420f:	48 89 e5             	mov    %rsp,%rbp
  404212:	48 83 ec 10          	sub    $0x10,%rsp
  404216:	48 89 7d f8          	mov    %rdi,-0x8(%rbp)
  40421a:	48 8b 45 f8          	mov    -0x8(%rbp),%rax
  40421e:	48 89 c7             	mov    %rax,%rdi
  404221:	e8 c4 0a 00 00       	callq  404cea <_ZNSt12_Vector_baseIN2vk21QueueFamilyPropertiesESaIS1_EE19_M_get_Tp_allocatorEv>
  404226:	48 89 c2             	mov    %rax,%rdx
  404229:	48 8b 45 f8          	mov    -0x8(%rbp),%rax
  40422d:	48 8b 48 08          	mov    0x8(%rax),%rcx
  404231:	48 8b 45 f8          	mov    -0x8(%rbp),%rax
  404235:	48 8b 00             	mov    (%rax),%rax
  404238:	48 89 ce             	mov    %rcx,%rsi
  40423b:	48 89 c7             	mov    %rax,%rdi
  40423e:	e8 b5 0a 00 00       	callq  404cf8 <_ZSt8_DestroyIPN2vk21QueueFamilyPropertiesES1_EvT_S3_RSaIT0_E>
  404243:	48 8b 45 f8          	mov    -0x8(%rbp),%rax
  404247:	48 89 c7             	mov    %rax,%rdi
  40424a:	e8 39 0a 00 00       	callq  404c88 <_ZNSt12_Vector_baseIN2vk21QueueFamilyPropertiesESaIS1_EED1Ev>
  40424f:	90                   	nop
  404250:	c9                   	leaveq 
  404251:	c3                   	retq   

0000000000404252 <_ZNKSt6vectorIN2vk21QueueFamilyPropertiesESaIS1_EE4sizeEv>:
  404252:	55                   	push   %rbp
  404253:	48 89 e5             	mov    %rsp,%rbp
  404256:	48 89 7d f8          	mov    %rdi,-0x8(%rbp)
  40425a:	48 8b 45 f8          	mov    -0x8(%rbp),%rax
  40425e:	48 8b 40 08          	mov    0x8(%rax),%rax
  404262:	48 89 c2             	mov    %rax,%rdx
  404265:	48 8b 45 f8          	mov    -0x8(%rbp),%rax
  404269:	48 8b 00             	mov    (%rax),%rax
  40426c:	48 29 c2             	sub    %rax,%rdx
  40426f:	48 89 d0             	mov    %rdx,%rax
  404272:	48 c1 f8 03          	sar    $0x3,%rax
  404276:	48 89 c2             	mov    %rax,%rdx
  404279:	48 b8 ab aa aa aa aa 	movabs $0xaaaaaaaaaaaaaaab,%rax
  404280:	aa aa aa 
  404283:	48 0f af c2          	imul   %rdx,%rax
  404287:	5d                   	pop    %rbp
  404288:	c3                   	retq   
  404289:	90                   	nop

000000000040428a <_ZNSt6vectorIN2vk21QueueFamilyPropertiesESaIS1_EEixEm>:
  40428a:	55                   	push   %rbp
  40428b:	48 89 e5             	mov    %rsp,%rbp
  40428e:	48 89 7d f8          	mov    %rdi,-0x8(%rbp)
  404292:	48 89 75 f0          	mov    %rsi,-0x10(%rbp)
  404296:	48 8b 45 f8          	mov    -0x8(%rbp),%rax
  40429a:	48 8b 08             	mov    (%rax),%rcx
  40429d:	48 8b 55 f0          	mov    -0x10(%rbp),%rdx
  4042a1:	48 89 d0             	mov    %rdx,%rax
  4042a4:	48 01 c0             	add    %rax,%rax
  4042a7:	48 01 d0             	add    %rdx,%rax
  4042aa:	48 c1 e0 03          	shl    $0x3,%rax
  4042ae:	48 01 c8             	add    %rcx,%rax
  4042b1:	5d                   	pop    %rbp
  4042b2:	c3                   	retq   
  4042b3:	90                   	nop

00000000004042b4 <_ZNSt6vectorIPjSaIS0_EEixEm>:
  4042b4:	55                   	push   %rbp
  4042b5:	48 89 e5             	mov    %rsp,%rbp
  4042b8:	48 89 7d f8          	mov    %rdi,-0x8(%rbp)
  4042bc:	48 89 75 f0          	mov    %rsi,-0x10(%rbp)
  4042c0:	48 8b 45 f8          	mov    -0x8(%rbp),%rax
  4042c4:	48 8b 00             	mov    (%rax),%rax
  4042c7:	48 8b 55 f0          	mov    -0x10(%rbp),%rdx
  4042cb:	48 c1 e2 03          	shl    $0x3,%rdx
  4042cf:	48 01 d0             	add    %rdx,%rax
  4042d2:	5d                   	pop    %rbp
  4042d3:	c3                   	retq   

00000000004042d4 <_ZNSt6vectorIjSaIjEEixEm>:
  4042d4:	55                   	push   %rbp
  4042d5:	48 89 e5             	mov    %rsp,%rbp
  4042d8:	48 89 7d f8          	mov    %rdi,-0x8(%rbp)
  4042dc:	48 89 75 f0          	mov    %rsi,-0x10(%rbp)
  4042e0:	48 8b 45 f8          	mov    -0x8(%rbp),%rax
  4042e4:	48 8b 00             	mov    (%rax),%rax
  4042e7:	48 8b 55 f0          	mov    -0x10(%rbp),%rdx
  4042eb:	48 c1 e2 02          	shl    $0x2,%rdx
  4042ef:	48 01 d0             	add    %rdx,%rax
  4042f2:	5d                   	pop    %rbp
  4042f3:	c3                   	retq   

00000000004042f4 <_ZNSt6vectorIN2vk19ShaderStageFlagBitsESaIS1_EEixEm>:
  4042f4:	55                   	push   %rbp
  4042f5:	48 89 e5             	mov    %rsp,%rbp
  4042f8:	48 89 7d f8          	mov    %rdi,-0x8(%rbp)
  4042fc:	48 89 75 f0          	mov    %rsi,-0x10(%rbp)
  404300:	48 8b 45 f8          	mov    -0x8(%rbp),%rax
  404304:	48 8b 00             	mov    (%rax),%rax
  404307:	48 8b 55 f0          	mov    -0x10(%rbp),%rdx
  40430b:	48 c1 e2 02          	shl    $0x2,%rdx
  40430f:	48 01 d0             	add    %rdx,%rax
  404312:	5d                   	pop    %rbp
  404313:	c3                   	retq   

0000000000404314 <_ZN2vk5FlagsINS_22DebugReportFlagBitsEXTEjEoRERKS2_>:
  404314:	55                   	push   %rbp
  404315:	48 89 e5             	mov    %rsp,%rbp
  404318:	48 89 7d f8          	mov    %rdi,-0x8(%rbp)
  40431c:	48 89 75 f0          	mov    %rsi,-0x10(%rbp)
  404320:	48 8b 45 f8          	mov    -0x8(%rbp),%rax
  404324:	8b 10                	mov    (%rax),%edx
  404326:	48 8b 45 f0          	mov    -0x10(%rbp),%rax
  40432a:	8b 00                	mov    (%rax),%eax
  40432c:	09 c2                	or     %eax,%edx
  40432e:	48 8b 45 f8          	mov    -0x8(%rbp),%rax
  404332:	89 10                	mov    %edx,(%rax)
  404334:	48 8b 45 f8          	mov    -0x8(%rbp),%rax
  404338:	5d                   	pop    %rbp
  404339:	c3                   	retq   

000000000040433a <_ZN2vk5FlagsINS_13QueueFlagBitsEjEaNERKS2_>:
  40433a:	55                   	push   %rbp
  40433b:	48 89 e5             	mov    %rsp,%rbp
  40433e:	48 89 7d f8          	mov    %rdi,-0x8(%rbp)
  404342:	48 89 75 f0          	mov    %rsi,-0x10(%rbp)
  404346:	48 8b 45 f8          	mov    -0x8(%rbp),%rax
  40434a:	8b 10                	mov    (%rax),%edx
  40434c:	48 8b 45 f0          	mov    -0x10(%rbp),%rax
  404350:	8b 00                	mov    (%rax),%eax
  404352:	21 c2                	and    %eax,%edx
  404354:	48 8b 45 f8          	mov    -0x8(%rbp),%rax
  404358:	89 10                	mov    %edx,(%rax)
  40435a:	48 8b 45 f8          	mov    -0x8(%rbp),%rax
  40435e:	5d                   	pop    %rbp
  40435f:	c3                   	retq   

0000000000404360 <_ZNSt12_Vector_baseIjSaIjEE12_Vector_implD1Ev>:
  404360:	55                   	push   %rbp
  404361:	48 89 e5             	mov    %rsp,%rbp
  404364:	48 83 ec 10          	sub    $0x10,%rsp
  404368:	48 89 7d f8          	mov    %rdi,-0x8(%rbp)
  40436c:	48 8b 45 f8          	mov    -0x8(%rbp),%rax
  404370:	48 89 c7             	mov    %rax,%rdi
  404373:	e8 e8 09 00 00       	callq  404d60 <_ZNSaIjED1Ev>
  404378:	90                   	nop
  404379:	c9                   	leaveq 
  40437a:	c3                   	retq   
  40437b:	90                   	nop

000000000040437c <_ZNSt12_Vector_baseIjSaIjEEC1Ev>:
  40437c:	55                   	push   %rbp
  40437d:	48 89 e5             	mov    %rsp,%rbp
  404380:	48 83 ec 10          	sub    $0x10,%rsp
  404384:	48 89 7d f8          	mov    %rdi,-0x8(%rbp)
  404388:	48 8b 45 f8          	mov    -0x8(%rbp),%rax
  40438c:	48 89 c7             	mov    %rax,%rdi
  40438f:	e8 8e 09 00 00       	callq  404d22 <_ZNSt12_Vector_baseIjSaIjEE12_Vector_implC1Ev>
  404394:	90                   	nop
  404395:	c9                   	leaveq 
  404396:	c3                   	retq   
  404397:	90                   	nop

0000000000404398 <_ZNSt12_Vector_baseIjSaIjEED1Ev>:
  404398:	55                   	push   %rbp
  404399:	48 89 e5             	mov    %rsp,%rbp
  40439c:	48 83 ec 10          	sub    $0x10,%rsp
  4043a0:	48 89 7d f8          	mov    %rdi,-0x8(%rbp)
  4043a4:	48 8b 45 f8          	mov    -0x8(%rbp),%rax
  4043a8:	48 8b 40 10          	mov    0x10(%rax),%rax
  4043ac:	48 89 c2             	mov    %rax,%rdx
  4043af:	48 8b 45 f8          	mov    -0x8(%rbp),%rax
  4043b3:	48 8b 00             	mov    (%rax),%rax
  4043b6:	48 29 c2             	sub    %rax,%rdx
  4043b9:	48 89 d0             	mov    %rdx,%rax
  4043bc:	48 c1 f8 02          	sar    $0x2,%rax
  4043c0:	48 89 c2             	mov    %rax,%rdx
  4043c3:	48 8b 45 f8          	mov    -0x8(%rbp),%rax
  4043c7:	48 8b 08             	mov    (%rax),%rcx
  4043ca:	48 8b 45 f8          	mov    -0x8(%rbp),%rax
  4043ce:	48 89 ce             	mov    %rcx,%rsi
  4043d1:	48 89 c7             	mov    %rax,%rdi
  4043d4:	e8 a3 09 00 00       	callq  404d7c <_ZNSt12_Vector_baseIjSaIjEE13_M_deallocateEPjm>
  4043d9:	48 8b 45 f8          	mov    -0x8(%rbp),%rax
  4043dd:	48 89 c7             	mov    %rax,%rdi
  4043e0:	e8 7b ff ff ff       	callq  404360 <_ZNSt12_Vector_baseIjSaIjEE12_Vector_implD1Ev>
  4043e5:	90                   	nop
  4043e6:	c9                   	leaveq 
  4043e7:	c3                   	retq   

00000000004043e8 <_ZNSt12_Vector_baseIjSaIjEE19_M_get_Tp_allocatorEv>:
  4043e8:	55                   	push   %rbp
  4043e9:	48 89 e5             	mov    %rsp,%rbp
  4043ec:	48 89 7d f8          	mov    %rdi,-0x8(%rbp)
  4043f0:	48 8b 45 f8          	mov    -0x8(%rbp),%rax
  4043f4:	5d                   	pop    %rbp
  4043f5:	c3                   	retq   

00000000004043f6 <_ZSt8_DestroyIPjjEvT_S1_RSaIT0_E>:
  4043f6:	55                   	push   %rbp
  4043f7:	48 89 e5             	mov    %rsp,%rbp
  4043fa:	48 83 ec 20          	sub    $0x20,%rsp
  4043fe:	48 89 7d f8          	mov    %rdi,-0x8(%rbp)
  404402:	48 89 75 f0          	mov    %rsi,-0x10(%rbp)
  404406:	48 89 55 e8          	mov    %rdx,-0x18(%rbp)
  40440a:	48 8b 55 f0          	mov    -0x10(%rbp),%rdx
  40440e:	48 8b 45 f8          	mov    -0x8(%rbp),%rax
  404412:	48 89 d6             	mov    %rdx,%rsi
  404415:	48 89 c7             	mov    %rax,%rdi
  404418:	e8 94 09 00 00       	callq  404db1 <_ZSt8_DestroyIPjEvT_S1_>
  40441d:	90                   	nop
  40441e:	c9                   	leaveq 
  40441f:	c3                   	retq   

0000000000404420 <_ZSt7forwardIjEOT_RNSt16remove_referenceIS0_E4typeE>:
  404420:	55                   	push   %rbp
  404421:	48 89 e5             	mov    %rsp,%rbp
  404424:	48 89 7d f8          	mov    %rdi,-0x8(%rbp)
  404428:	48 8b 45 f8          	mov    -0x8(%rbp),%rax
  40442c:	5d                   	pop    %rbp
  40442d:	c3                   	retq   

000000000040442e <_ZNSt6vectorIjSaIjEE12emplace_backIJjEEEvDpOT_>:
  40442e:	55                   	push   %rbp
  40442f:	48 89 e5             	mov    %rsp,%rbp
  404432:	48 83 ec 10          	sub    $0x10,%rsp
  404436:	48 89 7d f8          	mov    %rdi,-0x8(%rbp)
  40443a:	48 89 75 f0          	mov    %rsi,-0x10(%rbp)
  40443e:	48 8b 45 f8          	mov    -0x8(%rbp),%rax
  404442:	48 8b 50 08          	mov    0x8(%rax),%rdx
  404446:	48 8b 45 f8          	mov    -0x8(%rbp),%rax
  40444a:	48 8b 40 10          	mov    0x10(%rax),%rax
  40444e:	48 39 c2             	cmp    %rax,%rdx
  404451:	74 3c                	je     40448f <_ZNSt6vectorIjSaIjEE12emplace_backIJjEEEvDpOT_+0x61>
  404453:	48 8b 45 f0          	mov    -0x10(%rbp),%rax
  404457:	48 89 c7             	mov    %rax,%rdi
  40445a:	e8 c1 ff ff ff       	callq  404420 <_ZSt7forwardIjEOT_RNSt16remove_referenceIS0_E4typeE>
  40445f:	48 89 c2             	mov    %rax,%rdx
  404462:	48 8b 45 f8          	mov    -0x8(%rbp),%rax
  404466:	48 8b 48 08          	mov    0x8(%rax),%rcx
  40446a:	48 8b 45 f8          	mov    -0x8(%rbp),%rax
  40446e:	48 89 ce             	mov    %rcx,%rsi
  404471:	48 89 c7             	mov    %rax,%rdi
  404474:	e8 5e 09 00 00       	callq  404dd7 <_ZNSt16allocator_traitsISaIjEE9constructIjJjEEEvRS0_PT_DpOT0_>
  404479:	48 8b 45 f8          	mov    -0x8(%rbp),%rax
  40447d:	48 8b 40 08          	mov    0x8(%rax),%rax
  404481:	48 8d 50 04          	lea    0x4(%rax),%rdx
  404485:	48 8b 45 f8          	mov    -0x8(%rbp),%rax
  404489:	48 89 50 08          	mov    %rdx,0x8(%rax)
  40448d:	eb 1e                	jmp    4044ad <_ZNSt6vectorIjSaIjEE12emplace_backIJjEEEvDpOT_+0x7f>
  40448f:	48 8b 45 f0          	mov    -0x10(%rbp),%rax
  404493:	48 89 c7             	mov    %rax,%rdi
  404496:	e8 85 ff ff ff       	callq  404420 <_ZSt7forwardIjEOT_RNSt16remove_referenceIS0_E4typeE>
  40449b:	48 89 c2             	mov    %rax,%rdx
  40449e:	48 8b 45 f8          	mov    -0x8(%rbp),%rax
  4044a2:	48 89 d6             	mov    %rdx,%rsi
  4044a5:	48 89 c7             	mov    %rax,%rdi
  4044a8:	e8 63 09 00 00       	callq  404e10 <_ZNSt6vectorIjSaIjEE19_M_emplace_back_auxIJjEEEvDpOT_>
  4044ad:	90                   	nop
  4044ae:	c9                   	leaveq 
  4044af:	c3                   	retq   

00000000004044b0 <_ZSt4moveIRSaIjEEONSt16remove_referenceIT_E4typeEOS3_>:
  4044b0:	55                   	push   %rbp
  4044b1:	48 89 e5             	mov    %rsp,%rbp
  4044b4:	48 89 7d f8          	mov    %rdi,-0x8(%rbp)
  4044b8:	48 8b 45 f8          	mov    -0x8(%rbp),%rax
  4044bc:	5d                   	pop    %rbp
  4044bd:	c3                   	retq   

00000000004044be <_ZNSt12_Vector_baseIjSaIjEEC1EOS1_>:
  4044be:	55                   	push   %rbp
  4044bf:	48 89 e5             	mov    %rsp,%rbp
  4044c2:	48 83 ec 10          	sub    $0x10,%rsp
  4044c6:	48 89 7d f8          	mov    %rdi,-0x8(%rbp)
  4044ca:	48 89 75 f0          	mov    %rsi,-0x10(%rbp)
  4044ce:	48 8b 45 f0          	mov    -0x10(%rbp),%rax
  4044d2:	48 89 c7             	mov    %rax,%rdi
  4044d5:	e8 0e ff ff ff       	callq  4043e8 <_ZNSt12_Vector_baseIjSaIjEE19_M_get_Tp_allocatorEv>
  4044da:	48 89 c7             	mov    %rax,%rdi
  4044dd:	e8 ce ff ff ff       	callq  4044b0 <_ZSt4moveIRSaIjEEONSt16remove_referenceIT_E4typeEOS3_>
  4044e2:	48 89 c2             	mov    %rax,%rdx
  4044e5:	48 8b 45 f8          	mov    -0x8(%rbp),%rax
  4044e9:	48 89 d6             	mov    %rdx,%rsi
  4044ec:	48 89 c7             	mov    %rax,%rdi
  4044ef:	e8 06 0b 00 00       	callq  404ffa <_ZNSt12_Vector_baseIjSaIjEE12_Vector_implC1EOS0_>
  4044f4:	48 8b 55 f0          	mov    -0x10(%rbp),%rdx
  4044f8:	48 8b 45 f8          	mov    -0x8(%rbp),%rax
  4044fc:	48 89 d6             	mov    %rdx,%rsi
  4044ff:	48 89 c7             	mov    %rax,%rdi
  404502:	e8 47 0b 00 00       	callq  40504e <_ZNSt12_Vector_baseIjSaIjEE12_Vector_impl12_M_swap_dataERS2_>
  404507:	90                   	nop
  404508:	c9                   	leaveq 
  404509:	c3                   	retq   

000000000040450a <_ZNSt12_Vector_baseIPjSaIS0_EE12_Vector_implD1Ev>:
  40450a:	55                   	push   %rbp
  40450b:	48 89 e5             	mov    %rsp,%rbp
  40450e:	48 83 ec 10          	sub    $0x10,%rsp
  404512:	48 89 7d f8          	mov    %rdi,-0x8(%rbp)
  404516:	48 8b 45 f8          	mov    -0x8(%rbp),%rax
  40451a:	48 89 c7             	mov    %rax,%rdi
  40451d:	e8 c6 0b 00 00       	callq  4050e8 <_ZNSaIPjED1Ev>
  404522:	90                   	nop
  404523:	c9                   	leaveq 
  404524:	c3                   	retq   
  404525:	90                   	nop

0000000000404526 <_ZNSt12_Vector_baseIPjSaIS0_EEC1Ev>:
  404526:	55                   	push   %rbp
  404527:	48 89 e5             	mov    %rsp,%rbp
  40452a:	48 83 ec 10          	sub    $0x10,%rsp
  40452e:	48 89 7d f8          	mov    %rdi,-0x8(%rbp)
  404532:	48 8b 45 f8          	mov    -0x8(%rbp),%rax
  404536:	48 89 c7             	mov    %rax,%rdi
  404539:	e8 6c 0b 00 00       	callq  4050aa <_ZNSt12_Vector_baseIPjSaIS0_EE12_Vector_implC1Ev>
  40453e:	90                   	nop
  40453f:	c9                   	leaveq 
  404540:	c3                   	retq   
  404541:	90                   	nop

0000000000404542 <_ZNSt12_Vector_baseIPjSaIS0_EED1Ev>:
  404542:	55                   	push   %rbp
  404543:	48 89 e5             	mov    %rsp,%rbp
  404546:	48 83 ec 10          	sub    $0x10,%rsp
  40454a:	48 89 7d f8          	mov    %rdi,-0x8(%rbp)
  40454e:	48 8b 45 f8          	mov    -0x8(%rbp),%rax
  404552:	48 8b 40 10          	mov    0x10(%rax),%rax
  404556:	48 89 c2             	mov    %rax,%rdx
  404559:	48 8b 45 f8          	mov    -0x8(%rbp),%rax
  40455d:	48 8b 00             	mov    (%rax),%rax
  404560:	48 29 c2             	sub    %rax,%rdx
  404563:	48 89 d0             	mov    %rdx,%rax
  404566:	48 c1 f8 03          	sar    $0x3,%rax
  40456a:	48 89 c2             	mov    %rax,%rdx
  40456d:	48 8b 45 f8          	mov    -0x8(%rbp),%rax
  404571:	48 8b 08             	mov    (%rax),%rcx
  404574:	48 8b 45 f8          	mov    -0x8(%rbp),%rax
  404578:	48 89 ce             	mov    %rcx,%rsi
  40457b:	48 89 c7             	mov    %rax,%rdi
  40457e:	e8 81 0b 00 00       	callq  405104 <_ZNSt12_Vector_baseIPjSaIS0_EE13_M_deallocateEPS0_m>
  404583:	48 8b 45 f8          	mov    -0x8(%rbp),%rax
  404587:	48 89 c7             	mov    %rax,%rdi
  40458a:	e8 7b ff ff ff       	callq  40450a <_ZNSt12_Vector_baseIPjSaIS0_EE12_Vector_implD1Ev>
  40458f:	90                   	nop
  404590:	c9                   	leaveq 
  404591:	c3                   	retq   

0000000000404592 <_ZNSt12_Vector_baseIPjSaIS0_EE19_M_get_Tp_allocatorEv>:
  404592:	55                   	push   %rbp
  404593:	48 89 e5             	mov    %rsp,%rbp
  404596:	48 89 7d f8          	mov    %rdi,-0x8(%rbp)
  40459a:	48 8b 45 f8          	mov    -0x8(%rbp),%rax
  40459e:	5d                   	pop    %rbp
  40459f:	c3                   	retq   

00000000004045a0 <_ZSt8_DestroyIPPjS0_EvT_S2_RSaIT0_E>:
  4045a0:	55                   	push   %rbp
  4045a1:	48 89 e5             	mov    %rsp,%rbp
  4045a4:	48 83 ec 20          	sub    $0x20,%rsp
  4045a8:	48 89 7d f8          	mov    %rdi,-0x8(%rbp)
  4045ac:	48 89 75 f0          	mov    %rsi,-0x10(%rbp)
  4045b0:	48 89 55 e8          	mov    %rdx,-0x18(%rbp)
  4045b4:	48 8b 55 f0          	mov    -0x10(%rbp),%rdx
  4045b8:	48 8b 45 f8          	mov    -0x8(%rbp),%rax
  4045bc:	48 89 d6             	mov    %rdx,%rsi
  4045bf:	48 89 c7             	mov    %rax,%rdi
  4045c2:	e8 72 0b 00 00       	callq  405139 <_ZSt8_DestroyIPPjEvT_S2_>
  4045c7:	90                   	nop
  4045c8:	c9                   	leaveq 
  4045c9:	c3                   	retq   

00000000004045ca <_ZSt7forwardIRKPjEOT_RNSt16remove_referenceIS3_E4typeE>:
  4045ca:	55                   	push   %rbp
  4045cb:	48 89 e5             	mov    %rsp,%rbp
  4045ce:	48 89 7d f8          	mov    %rdi,-0x8(%rbp)
  4045d2:	48 8b 45 f8          	mov    -0x8(%rbp),%rax
  4045d6:	5d                   	pop    %rbp
  4045d7:	c3                   	retq   

00000000004045d8 <_ZNSt16allocator_traitsISaIPjEE9constructIS0_JRKS0_EEEvRS1_PT_DpOT0_>:
  4045d8:	55                   	push   %rbp
  4045d9:	48 89 e5             	mov    %rsp,%rbp
  4045dc:	48 83 ec 20          	sub    $0x20,%rsp
  4045e0:	48 89 7d f8          	mov    %rdi,-0x8(%rbp)
  4045e4:	48 89 75 f0          	mov    %rsi,-0x10(%rbp)
  4045e8:	48 89 55 e8          	mov    %rdx,-0x18(%rbp)
  4045ec:	48 8b 45 e8          	mov    -0x18(%rbp),%rax
  4045f0:	48 89 c7             	mov    %rax,%rdi
  4045f3:	e8 d2 ff ff ff       	callq  4045ca <_ZSt7forwardIRKPjEOT_RNSt16remove_referenceIS3_E4typeE>
  4045f8:	48 89 c2             	mov    %rax,%rdx
  4045fb:	48 8b 4d f0          	mov    -0x10(%rbp),%rcx
  4045ff:	48 8b 45 f8          	mov    -0x8(%rbp),%rax
  404603:	48 89 ce             	mov    %rcx,%rsi
  404606:	48 89 c7             	mov    %rax,%rdi
  404609:	e8 52 0b 00 00       	callq  405160 <_ZN9__gnu_cxx13new_allocatorIPjE9constructIS1_JRKS1_EEEvPT_DpOT0_>
  40460e:	90                   	nop
  40460f:	c9                   	leaveq 
  404610:	c3                   	retq   
  404611:	90                   	nop

0000000000404612 <_ZNSt6vectorIPjSaIS0_EE19_M_emplace_back_auxIJRKS0_EEEvDpOT_>:
  404612:	55                   	push   %rbp
  404613:	48 89 e5             	mov    %rsp,%rbp
  404616:	53                   	push   %rbx
  404617:	48 83 ec 38          	sub    $0x38,%rsp
  40461b:	48 89 7d c8          	mov    %rdi,-0x38(%rbp)
  40461f:	48 89 75 c0          	mov    %rsi,-0x40(%rbp)
  404623:	48 8b 45 c8          	mov    -0x38(%rbp),%rax
  404627:	ba 07 84 40 00       	mov    $0x408407,%edx
  40462c:	be 01 00 00 00       	mov    $0x1,%esi
  404631:	48 89 c7             	mov    %rax,%rdi
  404634:	e8 97 0b 00 00       	callq  4051d0 <_ZNKSt6vectorIPjSaIS0_EE12_M_check_lenEmPKc>
  404639:	48 89 45 e0          	mov    %rax,-0x20(%rbp)
  40463d:	48 8b 45 c8          	mov    -0x38(%rbp),%rax
  404641:	48 8b 55 e0          	mov    -0x20(%rbp),%rdx
  404645:	48 89 d6             	mov    %rdx,%rsi
  404648:	48 89 c7             	mov    %rax,%rdi
  40464b:	e8 4a 0c 00 00       	callq  40529a <_ZNSt12_Vector_baseIPjSaIS0_EE11_M_allocateEm>
  404650:	48 89 45 d8          	mov    %rax,-0x28(%rbp)
  404654:	48 8b 45 d8          	mov    -0x28(%rbp),%rax
  404658:	48 89 45 e8          	mov    %rax,-0x18(%rbp)
  40465c:	48 8b 45 c0          	mov    -0x40(%rbp),%rax
  404660:	48 89 c7             	mov    %rax,%rdi
  404663:	e8 62 ff ff ff       	callq  4045ca <_ZSt7forwardIRKPjEOT_RNSt16remove_referenceIS3_E4typeE>
  404668:	48 89 c3             	mov    %rax,%rbx
  40466b:	48 8b 45 c8          	mov    -0x38(%rbp),%rax
  40466f:	48 89 c7             	mov    %rax,%rdi
  404672:	e8 57 0c 00 00       	callq  4052ce <_ZNKSt6vectorIPjSaIS0_EE4sizeEv>
  404677:	48 8d 14 c5 00 00 00 	lea    0x0(,%rax,8),%rdx
  40467e:	00 
  40467f:	48 8b 45 d8          	mov    -0x28(%rbp),%rax
  404683:	48 8d 0c 02          	lea    (%rdx,%rax,1),%rcx
  404687:	48 8b 45 c8          	mov    -0x38(%rbp),%rax
  40468b:	48 89 da             	mov    %rbx,%rdx
  40468e:	48 89 ce             	mov    %rcx,%rsi
  404691:	48 89 c7             	mov    %rax,%rdi
  404694:	e8 3f ff ff ff       	callq  4045d8 <_ZNSt16allocator_traitsISaIPjEE9constructIS0_JRKS0_EEEvRS1_PT_DpOT0_>
  404699:	48 c7 45 e8 00 00 00 	movq   $0x0,-0x18(%rbp)
  4046a0:	00 
  4046a1:	48 8b 45 c8          	mov    -0x38(%rbp),%rax
  4046a5:	48 89 c7             	mov    %rax,%rdi
  4046a8:	e8 e5 fe ff ff       	callq  404592 <_ZNSt12_Vector_baseIPjSaIS0_EE19_M_get_Tp_allocatorEv>
  4046ad:	48 89 c1             	mov    %rax,%rcx
  4046b0:	48 8b 45 c8          	mov    -0x38(%rbp),%rax
  4046b4:	48 8b 70 08          	mov    0x8(%rax),%rsi
  4046b8:	48 8b 45 c8          	mov    -0x38(%rbp),%rax
  4046bc:	48 8b 00             	mov    (%rax),%rax
  4046bf:	48 8b 55 d8          	mov    -0x28(%rbp),%rdx
  4046c3:	48 89 c7             	mov    %rax,%rdi
  4046c6:	e8 29 0c 00 00       	callq  4052f4 <_ZSt34__uninitialized_move_if_noexcept_aIPPjS1_SaIS0_EET0_T_S4_S3_RT1_>
  4046cb:	48 89 45 e8          	mov    %rax,-0x18(%rbp)
  4046cf:	48 83 45 e8 08       	addq   $0x8,-0x18(%rbp)
  4046d4:	48 8b 45 c8          	mov    -0x38(%rbp),%rax
  4046d8:	48 89 c7             	mov    %rax,%rdi
  4046db:	e8 b2 fe ff ff       	callq  404592 <_ZNSt12_Vector_baseIPjSaIS0_EE19_M_get_Tp_allocatorEv>
  4046e0:	48 89 c2             	mov    %rax,%rdx
  4046e3:	48 8b 45 c8          	mov    -0x38(%rbp),%rax
  4046e7:	48 8b 48 08          	mov    0x8(%rax),%rcx
  4046eb:	48 8b 45 c8          	mov    -0x38(%rbp),%rax
  4046ef:	48 8b 00             	mov    (%rax),%rax
  4046f2:	48 89 ce             	mov    %rcx,%rsi
  4046f5:	48 89 c7             	mov    %rax,%rdi
  4046f8:	e8 a3 fe ff ff       	callq  4045a0 <_ZSt8_DestroyIPPjS0_EvT_S2_RSaIT0_E>
  4046fd:	48 8b 45 c8          	mov    -0x38(%rbp),%rax
  404701:	48 8b 40 10          	mov    0x10(%rax),%rax
  404705:	48 89 c2             	mov    %rax,%rdx
  404708:	48 8b 45 c8          	mov    -0x38(%rbp),%rax
  40470c:	48 8b 00             	mov    (%rax),%rax
  40470f:	48 29 c2             	sub    %rax,%rdx
  404712:	48 89 d0             	mov    %rdx,%rax
  404715:	48 c1 f8 03          	sar    $0x3,%rax
  404719:	48 89 c2             	mov    %rax,%rdx
  40471c:	48 8b 45 c8          	mov    -0x38(%rbp),%rax
  404720:	48 8b 08             	mov    (%rax),%rcx
  404723:	48 8b 45 c8          	mov    -0x38(%rbp),%rax
  404727:	48 89 ce             	mov    %rcx,%rsi
  40472a:	48 89 c7             	mov    %rax,%rdi
  40472d:	e8 d2 09 00 00       	callq  405104 <_ZNSt12_Vector_baseIPjSaIS0_EE13_M_deallocateEPS0_m>
  404732:	48 8b 45 c8          	mov    -0x38(%rbp),%rax
  404736:	48 8b 55 d8          	mov    -0x28(%rbp),%rdx
  40473a:	48 89 10             	mov    %rdx,(%rax)
  40473d:	48 8b 45 c8          	mov    -0x38(%rbp),%rax
  404741:	48 8b 55 e8          	mov    -0x18(%rbp),%rdx
  404745:	48 89 50 08          	mov    %rdx,0x8(%rax)
  404749:	48 8b 45 e0          	mov    -0x20(%rbp),%rax
  40474d:	48 8d 14 c5 00 00 00 	lea    0x0(,%rax,8),%rdx
  404754:	00 
  404755:	48 8b 45 d8          	mov    -0x28(%rbp),%rax
  404759:	48 01 c2             	add    %rax,%rdx
  40475c:	48 8b 45 c8          	mov    -0x38(%rbp),%rax
  404760:	48 89 50 10          	mov    %rdx,0x10(%rax)
  404764:	e9 8c 00 00 00       	jmpq   4047f5 <_ZNSt6vectorIPjSaIS0_EE19_M_emplace_back_auxIJRKS0_EEEvDpOT_+0x1e3>
  404769:	48 89 c7             	mov    %rax,%rdi
  40476c:	e8 bf cc ff ff       	callq  401430 <__cxa_begin_catch@plt>
  404771:	48 83 7d e8 00       	cmpq   $0x0,-0x18(%rbp)
  404776:	75 2c                	jne    4047a4 <_ZNSt6vectorIPjSaIS0_EE19_M_emplace_back_auxIJRKS0_EEEvDpOT_+0x192>
  404778:	48 8b 45 c8          	mov    -0x38(%rbp),%rax
  40477c:	48 89 c7             	mov    %rax,%rdi
  40477f:	e8 4a 0b 00 00       	callq  4052ce <_ZNKSt6vectorIPjSaIS0_EE4sizeEv>
  404784:	48 8d 14 c5 00 00 00 	lea    0x0(,%rax,8),%rdx
  40478b:	00 
  40478c:	48 8b 45 d8          	mov    -0x28(%rbp),%rax
  404790:	48 01 c2             	add    %rax,%rdx
  404793:	48 8b 45 c8          	mov    -0x38(%rbp),%rax
  404797:	48 89 d6             	mov    %rdx,%rsi
  40479a:	48 89 c7             	mov    %rax,%rdi
  40479d:	e8 a6 0b 00 00       	callq  405348 <_ZNSt16allocator_traitsISaIPjEE7destroyIS0_EEvRS1_PT_>
  4047a2:	eb 22                	jmp    4047c6 <_ZNSt6vectorIPjSaIS0_EE19_M_emplace_back_auxIJRKS0_EEEvDpOT_+0x1b4>
  4047a4:	48 8b 45 c8          	mov    -0x38(%rbp),%rax
  4047a8:	48 89 c7             	mov    %rax,%rdi
  4047ab:	e8 e2 fd ff ff       	callq  404592 <_ZNSt12_Vector_baseIPjSaIS0_EE19_M_get_Tp_allocatorEv>
  4047b0:	48 89 c2             	mov    %rax,%rdx
  4047b3:	48 8b 4d e8          	mov    -0x18(%rbp),%rcx
  4047b7:	48 8b 45 d8          	mov    -0x28(%rbp),%rax
  4047bb:	48 89 ce             	mov    %rcx,%rsi
  4047be:	48 89 c7             	mov    %rax,%rdi
  4047c1:	e8 da fd ff ff       	callq  4045a0 <_ZSt8_DestroyIPPjS0_EvT_S2_RSaIT0_E>
  4047c6:	48 8b 45 c8          	mov    -0x38(%rbp),%rax
  4047ca:	48 8b 55 e0          	mov    -0x20(%rbp),%rdx
  4047ce:	48 8b 4d d8          	mov    -0x28(%rbp),%rcx
  4047d2:	48 89 ce             	mov    %rcx,%rsi
  4047d5:	48 89 c7             	mov    %rax,%rdi
  4047d8:	e8 27 09 00 00       	callq  405104 <_ZNSt12_Vector_baseIPjSaIS0_EE13_M_deallocateEPS0_m>
  4047dd:	e8 ee cd ff ff       	callq  4015d0 <__cxa_rethrow@plt>
  4047e2:	48 89 c3             	mov    %rax,%rbx
  4047e5:	e8 26 ce ff ff       	callq  401610 <__cxa_end_catch@plt>
  4047ea:	48 89 d8             	mov    %rbx,%rax
  4047ed:	48 89 c7             	mov    %rax,%rdi
  4047f0:	e8 5b ce ff ff       	callq  401650 <_Unwind_Resume@plt>
  4047f5:	48 83 c4 38          	add    $0x38,%rsp
  4047f9:	5b                   	pop    %rbx
  4047fa:	5d                   	pop    %rbp
  4047fb:	c3                   	retq   

00000000004047fc <_ZSt4moveIRSaIPjEEONSt16remove_referenceIT_E4typeEOS4_>:
  4047fc:	55                   	push   %rbp
  4047fd:	48 89 e5             	mov    %rsp,%rbp
  404800:	48 89 7d f8          	mov    %rdi,-0x8(%rbp)
  404804:	48 8b 45 f8          	mov    -0x8(%rbp),%rax
  404808:	5d                   	pop    %rbp
  404809:	c3                   	retq   

000000000040480a <_ZNSt12_Vector_baseIPjSaIS0_EEC1EOS2_>:
  40480a:	55                   	push   %rbp
  40480b:	48 89 e5             	mov    %rsp,%rbp
  40480e:	48 83 ec 10          	sub    $0x10,%rsp
  404812:	48 89 7d f8          	mov    %rdi,-0x8(%rbp)
  404816:	48 89 75 f0          	mov    %rsi,-0x10(%rbp)
  40481a:	48 8b 45 f0          	mov    -0x10(%rbp),%rax
  40481e:	48 89 c7             	mov    %rax,%rdi
  404821:	e8 6c fd ff ff       	callq  404592 <_ZNSt12_Vector_baseIPjSaIS0_EE19_M_get_Tp_allocatorEv>
  404826:	48 89 c7             	mov    %rax,%rdi
  404829:	e8 ce ff ff ff       	callq  4047fc <_ZSt4moveIRSaIPjEEONSt16remove_referenceIT_E4typeEOS4_>
  40482e:	48 89 c2             	mov    %rax,%rdx
  404831:	48 8b 45 f8          	mov    -0x8(%rbp),%rax
  404835:	48 89 d6             	mov    %rdx,%rsi
  404838:	48 89 c7             	mov    %rax,%rdi
  40483b:	e8 2e 0b 00 00       	callq  40536e <_ZNSt12_Vector_baseIPjSaIS0_EE12_Vector_implC1EOS1_>
  404840:	48 8b 55 f0          	mov    -0x10(%rbp),%rdx
  404844:	48 8b 45 f8          	mov    -0x8(%rbp),%rax
  404848:	48 89 d6             	mov    %rdx,%rsi
  40484b:	48 89 c7             	mov    %rax,%rdi
  40484e:	e8 6f 0b 00 00       	callq  4053c2 <_ZNSt12_Vector_baseIPjSaIS0_EE12_Vector_impl12_M_swap_dataERS3_>
  404853:	90                   	nop
  404854:	c9                   	leaveq 
  404855:	c3                   	retq   

0000000000404856 <_ZNSt12_Vector_baseIN2vk19ShaderStageFlagBitsESaIS1_EE12_Vector_implD1Ev>:
  404856:	55                   	push   %rbp
  404857:	48 89 e5             	mov    %rsp,%rbp
  40485a:	48 83 ec 10          	sub    $0x10,%rsp
  40485e:	48 89 7d f8          	mov    %rdi,-0x8(%rbp)
  404862:	48 8b 45 f8          	mov    -0x8(%rbp),%rax
  404866:	48 89 c7             	mov    %rax,%rdi
  404869:	e8 ee 0b 00 00       	callq  40545c <_ZNSaIN2vk19ShaderStageFlagBitsEED1Ev>
  40486e:	90                   	nop
  40486f:	c9                   	leaveq 
  404870:	c3                   	retq   
  404871:	90                   	nop

0000000000404872 <_ZNSt12_Vector_baseIN2vk19ShaderStageFlagBitsESaIS1_EEC1Ev>:
  404872:	55                   	push   %rbp
  404873:	48 89 e5             	mov    %rsp,%rbp
  404876:	48 83 ec 10          	sub    $0x10,%rsp
  40487a:	48 89 7d f8          	mov    %rdi,-0x8(%rbp)
  40487e:	48 8b 45 f8          	mov    -0x8(%rbp),%rax
  404882:	48 89 c7             	mov    %rax,%rdi
  404885:	e8 94 0b 00 00       	callq  40541e <_ZNSt12_Vector_baseIN2vk19ShaderStageFlagBitsESaIS1_EE12_Vector_implC1Ev>
  40488a:	90                   	nop
  40488b:	c9                   	leaveq 
  40488c:	c3                   	retq   
  40488d:	90                   	nop

000000000040488e <_ZNSt12_Vector_baseIN2vk19ShaderStageFlagBitsESaIS1_EED1Ev>:
  40488e:	55                   	push   %rbp
  40488f:	48 89 e5             	mov    %rsp,%rbp
  404892:	48 83 ec 10          	sub    $0x10,%rsp
  404896:	48 89 7d f8          	mov    %rdi,-0x8(%rbp)
  40489a:	48 8b 45 f8          	mov    -0x8(%rbp),%rax
  40489e:	48 8b 40 10          	mov    0x10(%rax),%rax
  4048a2:	48 89 c2             	mov    %rax,%rdx
  4048a5:	48 8b 45 f8          	mov    -0x8(%rbp),%rax
  4048a9:	48 8b 00             	mov    (%rax),%rax
  4048ac:	48 29 c2             	sub    %rax,%rdx
  4048af:	48 89 d0             	mov    %rdx,%rax
  4048b2:	48 c1 f8 02          	sar    $0x2,%rax
  4048b6:	48 89 c2             	mov    %rax,%rdx
  4048b9:	48 8b 45 f8          	mov    -0x8(%rbp),%rax
  4048bd:	48 8b 08             	mov    (%rax),%rcx
  4048c0:	48 8b 45 f8          	mov    -0x8(%rbp),%rax
  4048c4:	48 89 ce             	mov    %rcx,%rsi
  4048c7:	48 89 c7             	mov    %rax,%rdi
  4048ca:	e8 a9 0b 00 00       	callq  405478 <_ZNSt12_Vector_baseIN2vk19ShaderStageFlagBitsESaIS1_EE13_M_deallocateEPS1_m>
  4048cf:	48 8b 45 f8          	mov    -0x8(%rbp),%rax
  4048d3:	48 89 c7             	mov    %rax,%rdi
  4048d6:	e8 7b ff ff ff       	callq  404856 <_ZNSt12_Vector_baseIN2vk19ShaderStageFlagBitsESaIS1_EE12_Vector_implD1Ev>
  4048db:	90                   	nop
  4048dc:	c9                   	leaveq 
  4048dd:	c3                   	retq   

00000000004048de <_ZNSt12_Vector_baseIN2vk19ShaderStageFlagBitsESaIS1_EE19_M_get_Tp_allocatorEv>:
  4048de:	55                   	push   %rbp
  4048df:	48 89 e5             	mov    %rsp,%rbp
  4048e2:	48 89 7d f8          	mov    %rdi,-0x8(%rbp)
  4048e6:	48 8b 45 f8          	mov    -0x8(%rbp),%rax
  4048ea:	5d                   	pop    %rbp
  4048eb:	c3                   	retq   

00000000004048ec <_ZSt8_DestroyIPN2vk19ShaderStageFlagBitsES1_EvT_S3_RSaIT0_E>:
  4048ec:	55                   	push   %rbp
  4048ed:	48 89 e5             	mov    %rsp,%rbp
  4048f0:	48 83 ec 20          	sub    $0x20,%rsp
  4048f4:	48 89 7d f8          	mov    %rdi,-0x8(%rbp)
  4048f8:	48 89 75 f0          	mov    %rsi,-0x10(%rbp)
  4048fc:	48 89 55 e8          	mov    %rdx,-0x18(%rbp)
  404900:	48 8b 55 f0          	mov    -0x10(%rbp),%rdx
  404904:	48 8b 45 f8          	mov    -0x8(%rbp),%rax
  404908:	48 89 d6             	mov    %rdx,%rsi
  40490b:	48 89 c7             	mov    %rax,%rdi
  40490e:	e8 9a 0b 00 00       	callq  4054ad <_ZSt8_DestroyIPN2vk19ShaderStageFlagBitsEEvT_S3_>
  404913:	90                   	nop
  404914:	c9                   	leaveq 
  404915:	c3                   	retq   

0000000000404916 <_ZSt7forwardIN2vk19ShaderStageFlagBitsEEOT_RNSt16remove_referenceIS2_E4typeE>:
  404916:	55                   	push   %rbp
  404917:	48 89 e5             	mov    %rsp,%rbp
  40491a:	48 89 7d f8          	mov    %rdi,-0x8(%rbp)
  40491e:	48 8b 45 f8          	mov    -0x8(%rbp),%rax
  404922:	5d                   	pop    %rbp
  404923:	c3                   	retq   

0000000000404924 <_ZNSt6vectorIN2vk19ShaderStageFlagBitsESaIS1_EE12emplace_backIJS1_EEEvDpOT_>:
  404924:	55                   	push   %rbp
  404925:	48 89 e5             	mov    %rsp,%rbp
  404928:	48 83 ec 10          	sub    $0x10,%rsp
  40492c:	48 89 7d f8          	mov    %rdi,-0x8(%rbp)
  404930:	48 89 75 f0          	mov    %rsi,-0x10(%rbp)
  404934:	48 8b 45 f8          	mov    -0x8(%rbp),%rax
  404938:	48 8b 50 08          	mov    0x8(%rax),%rdx
  40493c:	48 8b 45 f8          	mov    -0x8(%rbp),%rax
  404940:	48 8b 40 10          	mov    0x10(%rax),%rax
  404944:	48 39 c2             	cmp    %rax,%rdx
  404947:	74 3c                	je     404985 <_ZNSt6vectorIN2vk19ShaderStageFlagBitsESaIS1_EE12emplace_backIJS1_EEEvDpOT_+0x61>
  404949:	48 8b 45 f0          	mov    -0x10(%rbp),%rax
  40494d:	48 89 c7             	mov    %rax,%rdi
  404950:	e8 c1 ff ff ff       	callq  404916 <_ZSt7forwardIN2vk19ShaderStageFlagBitsEEOT_RNSt16remove_referenceIS2_E4typeE>
  404955:	48 89 c2             	mov    %rax,%rdx
  404958:	48 8b 45 f8          	mov    -0x8(%rbp),%rax
  40495c:	48 8b 48 08          	mov    0x8(%rax),%rcx
  404960:	48 8b 45 f8          	mov    -0x8(%rbp),%rax
  404964:	48 89 ce             	mov    %rcx,%rsi
  404967:	48 89 c7             	mov    %rax,%rdi
  40496a:	e8 64 0b 00 00       	callq  4054d3 <_ZNSt16allocator_traitsISaIN2vk19ShaderStageFlagBitsEEE9constructIS1_JS1_EEEvRS2_PT_DpOT0_>
  40496f:	48 8b 45 f8          	mov    -0x8(%rbp),%rax
  404973:	48 8b 40 08          	mov    0x8(%rax),%rax
  404977:	48 8d 50 04          	lea    0x4(%rax),%rdx
  40497b:	48 8b 45 f8          	mov    -0x8(%rbp),%rax
  40497f:	48 89 50 08          	mov    %rdx,0x8(%rax)
  404983:	eb 1e                	jmp    4049a3 <_ZNSt6vectorIN2vk19ShaderStageFlagBitsESaIS1_EE12emplace_backIJS1_EEEvDpOT_+0x7f>
  404985:	48 8b 45 f0          	mov    -0x10(%rbp),%rax
  404989:	48 89 c7             	mov    %rax,%rdi
  40498c:	e8 85 ff ff ff       	callq  404916 <_ZSt7forwardIN2vk19ShaderStageFlagBitsEEOT_RNSt16remove_referenceIS2_E4typeE>
  404991:	48 89 c2             	mov    %rax,%rdx
  404994:	48 8b 45 f8          	mov    -0x8(%rbp),%rax
  404998:	48 89 d6             	mov    %rdx,%rsi
  40499b:	48 89 c7             	mov    %rax,%rdi
  40499e:	e8 69 0b 00 00       	callq  40550c <_ZNSt6vectorIN2vk19ShaderStageFlagBitsESaIS1_EE19_M_emplace_back_auxIJS1_EEEvDpOT_>
  4049a3:	90                   	nop
  4049a4:	c9                   	leaveq 
  4049a5:	c3                   	retq   

00000000004049a6 <_ZSt4moveIRSaIN2vk19ShaderStageFlagBitsEEEONSt16remove_referenceIT_E4typeEOS5_>:
  4049a6:	55                   	push   %rbp
  4049a7:	48 89 e5             	mov    %rsp,%rbp
  4049aa:	48 89 7d f8          	mov    %rdi,-0x8(%rbp)
  4049ae:	48 8b 45 f8          	mov    -0x8(%rbp),%rax
  4049b2:	5d                   	pop    %rbp
  4049b3:	c3                   	retq   

00000000004049b4 <_ZNSt12_Vector_baseIN2vk19ShaderStageFlagBitsESaIS1_EEC1EOS3_>:
  4049b4:	55                   	push   %rbp
  4049b5:	48 89 e5             	mov    %rsp,%rbp
  4049b8:	48 83 ec 10          	sub    $0x10,%rsp
  4049bc:	48 89 7d f8          	mov    %rdi,-0x8(%rbp)
  4049c0:	48 89 75 f0          	mov    %rsi,-0x10(%rbp)
  4049c4:	48 8b 45 f0          	mov    -0x10(%rbp),%rax
  4049c8:	48 89 c7             	mov    %rax,%rdi
  4049cb:	e8 0e ff ff ff       	callq  4048de <_ZNSt12_Vector_baseIN2vk19ShaderStageFlagBitsESaIS1_EE19_M_get_Tp_allocatorEv>
  4049d0:	48 89 c7             	mov    %rax,%rdi
  4049d3:	e8 ce ff ff ff       	callq  4049a6 <_ZSt4moveIRSaIN2vk19ShaderStageFlagBitsEEEONSt16remove_referenceIT_E4typeEOS5_>
  4049d8:	48 89 c2             	mov    %rax,%rdx
  4049db:	48 8b 45 f8          	mov    -0x8(%rbp),%rax
  4049df:	48 89 d6             	mov    %rdx,%rsi
  4049e2:	48 89 c7             	mov    %rax,%rdi
  4049e5:	e8 0c 0d 00 00       	callq  4056f6 <_ZNSt12_Vector_baseIN2vk19ShaderStageFlagBitsESaIS1_EE12_Vector_implC1EOS2_>
  4049ea:	48 8b 55 f0          	mov    -0x10(%rbp),%rdx
  4049ee:	48 8b 45 f8          	mov    -0x8(%rbp),%rax
  4049f2:	48 89 d6             	mov    %rdx,%rsi
  4049f5:	48 89 c7             	mov    %rax,%rdi
  4049f8:	e8 4d 0d 00 00       	callq  40574a <_ZNSt12_Vector_baseIN2vk19ShaderStageFlagBitsESaIS1_EE12_Vector_impl12_M_swap_dataERS4_>
  4049fd:	90                   	nop
  4049fe:	c9                   	leaveq 
  4049ff:	c3                   	retq   

0000000000404a00 <_ZNSt6vectorIN2vk14PhysicalDeviceESaIS1_EEC1Ev>:
  404a00:	55                   	push   %rbp
  404a01:	48 89 e5             	mov    %rsp,%rbp
  404a04:	48 83 ec 10          	sub    $0x10,%rsp
  404a08:	48 89 7d f8          	mov    %rdi,-0x8(%rbp)
  404a0c:	48 8b 45 f8          	mov    -0x8(%rbp),%rax
  404a10:	48 89 c7             	mov    %rax,%rdi
  404a13:	e8 8e 0d 00 00       	callq  4057a6 <_ZNSt12_Vector_baseIN2vk14PhysicalDeviceESaIS1_EEC1Ev>
  404a18:	90                   	nop
  404a19:	c9                   	leaveq 
  404a1a:	c3                   	retq   
  404a1b:	90                   	nop

0000000000404a1c <_ZNSt6vectorIN2vk14PhysicalDeviceESaIS1_EE6resizeEm>:
  404a1c:	55                   	push   %rbp
  404a1d:	48 89 e5             	mov    %rsp,%rbp
  404a20:	48 83 ec 10          	sub    $0x10,%rsp
  404a24:	48 89 7d f8          	mov    %rdi,-0x8(%rbp)
  404a28:	48 89 75 f0          	mov    %rsi,-0x10(%rbp)
  404a2c:	48 8b 45 f8          	mov    -0x8(%rbp),%rax
  404a30:	48 89 c7             	mov    %rax,%rdi
  404a33:	e8 94 00 00 00       	callq  404acc <_ZNKSt6vectorIN2vk14PhysicalDeviceESaIS1_EE4sizeEv>
  404a38:	48 3b 45 f0          	cmp    -0x10(%rbp),%rax
  404a3c:	0f 92 c0             	setb   %al
  404a3f:	84 c0                	test   %al,%al
  404a41:	74 2a                	je     404a6d <_ZNSt6vectorIN2vk14PhysicalDeviceESaIS1_EE6resizeEm+0x51>
  404a43:	48 8b 45 f8          	mov    -0x8(%rbp),%rax
  404a47:	48 89 c7             	mov    %rax,%rdi
  404a4a:	e8 7d 00 00 00       	callq  404acc <_ZNKSt6vectorIN2vk14PhysicalDeviceESaIS1_EE4sizeEv>
  404a4f:	48 89 c2             	mov    %rax,%rdx
  404a52:	48 8b 45 f0          	mov    -0x10(%rbp),%rax
  404a56:	48 29 d0             	sub    %rdx,%rax
  404a59:	48 89 c2             	mov    %rax,%rdx
  404a5c:	48 8b 45 f8          	mov    -0x8(%rbp),%rax
  404a60:	48 89 d6             	mov    %rdx,%rsi
  404a63:	48 89 c7             	mov    %rax,%rdi
  404a66:	e8 57 0d 00 00       	callq  4057c2 <_ZNSt6vectorIN2vk14PhysicalDeviceESaIS1_EE17_M_default_appendEm>
  404a6b:	eb 38                	jmp    404aa5 <_ZNSt6vectorIN2vk14PhysicalDeviceESaIS1_EE6resizeEm+0x89>
  404a6d:	48 8b 45 f8          	mov    -0x8(%rbp),%rax
  404a71:	48 89 c7             	mov    %rax,%rdi
  404a74:	e8 53 00 00 00       	callq  404acc <_ZNKSt6vectorIN2vk14PhysicalDeviceESaIS1_EE4sizeEv>
  404a79:	48 3b 45 f0          	cmp    -0x10(%rbp),%rax
  404a7d:	0f 97 c0             	seta   %al
  404a80:	84 c0                	test   %al,%al
  404a82:	74 21                	je     404aa5 <_ZNSt6vectorIN2vk14PhysicalDeviceESaIS1_EE6resizeEm+0x89>
  404a84:	48 8b 45 f8          	mov    -0x8(%rbp),%rax
  404a88:	48 8b 00             	mov    (%rax),%rax
  404a8b:	48 8b 55 f0          	mov    -0x10(%rbp),%rdx
  404a8f:	48 c1 e2 03          	shl    $0x3,%rdx
  404a93:	48 01 c2             	add    %rax,%rdx
  404a96:	48 8b 45 f8          	mov    -0x8(%rbp),%rax
  404a9a:	48 89 d6             	mov    %rdx,%rsi
  404a9d:	48 89 c7             	mov    %rax,%rdi
  404aa0:	e8 25 0f 00 00       	callq  4059ca <_ZNSt6vectorIN2vk14PhysicalDeviceESaIS1_EE15_M_erase_at_endEPS1_>
  404aa5:	90                   	nop
  404aa6:	c9                   	leaveq 
  404aa7:	c3                   	retq   

0000000000404aa8 <_ZNSt6vectorIN2vk14PhysicalDeviceESaIS1_EE4dataEv>:
  404aa8:	55                   	push   %rbp
  404aa9:	48 89 e5             	mov    %rsp,%rbp
  404aac:	48 83 ec 10          	sub    $0x10,%rsp
  404ab0:	48 89 7d f8          	mov    %rdi,-0x8(%rbp)
  404ab4:	48 8b 45 f8          	mov    -0x8(%rbp),%rax
  404ab8:	48 8b 10             	mov    (%rax),%rdx
  404abb:	48 8b 45 f8          	mov    -0x8(%rbp),%rax
  404abf:	48 89 d6             	mov    %rdx,%rsi
  404ac2:	48 89 c7             	mov    %rax,%rdi
  404ac5:	e8 46 0f 00 00       	callq  405a10 <_ZNKSt6vectorIN2vk14PhysicalDeviceESaIS1_EE11_M_data_ptrIS1_EEPT_S6_>
  404aca:	c9                   	leaveq 
  404acb:	c3                   	retq   

0000000000404acc <_ZNKSt6vectorIN2vk14PhysicalDeviceESaIS1_EE4sizeEv>:
  404acc:	55                   	push   %rbp
  404acd:	48 89 e5             	mov    %rsp,%rbp
  404ad0:	48 89 7d f8          	mov    %rdi,-0x8(%rbp)
  404ad4:	48 8b 45 f8          	mov    -0x8(%rbp),%rax
  404ad8:	48 8b 40 08          	mov    0x8(%rax),%rax
  404adc:	48 89 c2             	mov    %rax,%rdx
  404adf:	48 8b 45 f8          	mov    -0x8(%rbp),%rax
  404ae3:	48 8b 00             	mov    (%rax),%rax
  404ae6:	48 29 c2             	sub    %rax,%rdx
  404ae9:	48 89 d0             	mov    %rdx,%rax
  404aec:	48 c1 f8 03          	sar    $0x3,%rax
  404af0:	5d                   	pop    %rbp
  404af1:	c3                   	retq   

0000000000404af2 <_ZNSt12_Vector_baseIN2vk14PhysicalDeviceESaIS1_EE12_Vector_implD1Ev>:
  404af2:	55                   	push   %rbp
  404af3:	48 89 e5             	mov    %rsp,%rbp
  404af6:	48 83 ec 10          	sub    $0x10,%rsp
  404afa:	48 89 7d f8          	mov    %rdi,-0x8(%rbp)
  404afe:	48 8b 45 f8          	mov    -0x8(%rbp),%rax
  404b02:	48 89 c7             	mov    %rax,%rdi
  404b05:	e8 08 10 00 00       	callq  405b12 <_ZNSaIN2vk14PhysicalDeviceEED1Ev>
  404b0a:	90                   	nop
  404b0b:	c9                   	leaveq 
  404b0c:	c3                   	retq   
  404b0d:	90                   	nop

0000000000404b0e <_ZNSt12_Vector_baseIN2vk14PhysicalDeviceESaIS1_EED1Ev>:
  404b0e:	55                   	push   %rbp
  404b0f:	48 89 e5             	mov    %rsp,%rbp
  404b12:	48 83 ec 10          	sub    $0x10,%rsp
  404b16:	48 89 7d f8          	mov    %rdi,-0x8(%rbp)
  404b1a:	48 8b 45 f8          	mov    -0x8(%rbp),%rax
  404b1e:	48 8b 40 10          	mov    0x10(%rax),%rax
  404b22:	48 89 c2             	mov    %rax,%rdx
  404b25:	48 8b 45 f8          	mov    -0x8(%rbp),%rax
  404b29:	48 8b 00             	mov    (%rax),%rax
  404b2c:	48 29 c2             	sub    %rax,%rdx
  404b2f:	48 89 d0             	mov    %rdx,%rax
  404b32:	48 c1 f8 03          	sar    $0x3,%rax
  404b36:	48 89 c2             	mov    %rax,%rdx
  404b39:	48 8b 45 f8          	mov    -0x8(%rbp),%rax
  404b3d:	48 8b 08             	mov    (%rax),%rcx
  404b40:	48 8b 45 f8          	mov    -0x8(%rbp),%rax
  404b44:	48 89 ce             	mov    %rcx,%rsi
  404b47:	48 89 c7             	mov    %rax,%rdi
  404b4a:	e8 df 0f 00 00       	callq  405b2e <_ZNSt12_Vector_baseIN2vk14PhysicalDeviceESaIS1_EE13_M_deallocateEPS1_m>
  404b4f:	48 8b 45 f8          	mov    -0x8(%rbp),%rax
  404b53:	48 89 c7             	mov    %rax,%rdi
  404b56:	e8 97 ff ff ff       	callq  404af2 <_ZNSt12_Vector_baseIN2vk14PhysicalDeviceESaIS1_EE12_Vector_implD1Ev>
  404b5b:	90                   	nop
  404b5c:	c9                   	leaveq 
  404b5d:	c3                   	retq   

0000000000404b5e <_ZNSt12_Vector_baseIN2vk14PhysicalDeviceESaIS1_EE19_M_get_Tp_allocatorEv>:
  404b5e:	55                   	push   %rbp
  404b5f:	48 89 e5             	mov    %rsp,%rbp
  404b62:	48 89 7d f8          	mov    %rdi,-0x8(%rbp)
  404b66:	48 8b 45 f8          	mov    -0x8(%rbp),%rax
  404b6a:	5d                   	pop    %rbp
  404b6b:	c3                   	retq   

0000000000404b6c <_ZSt8_DestroyIPN2vk14PhysicalDeviceES1_EvT_S3_RSaIT0_E>:
  404b6c:	55                   	push   %rbp
  404b6d:	48 89 e5             	mov    %rsp,%rbp
  404b70:	48 83 ec 20          	sub    $0x20,%rsp
  404b74:	48 89 7d f8          	mov    %rdi,-0x8(%rbp)
  404b78:	48 89 75 f0          	mov    %rsi,-0x10(%rbp)
  404b7c:	48 89 55 e8          	mov    %rdx,-0x18(%rbp)
  404b80:	48 8b 55 f0          	mov    -0x10(%rbp),%rdx
  404b84:	48 8b 45 f8          	mov    -0x8(%rbp),%rax
  404b88:	48 89 d6             	mov    %rdx,%rsi
  404b8b:	48 89 c7             	mov    %rax,%rdi
  404b8e:	e8 d0 0f 00 00       	callq  405b63 <_ZSt8_DestroyIPN2vk14PhysicalDeviceEEvT_S3_>
  404b93:	90                   	nop
  404b94:	c9                   	leaveq 
  404b95:	c3                   	retq   

0000000000404b96 <_ZNSt6vectorIN2vk21QueueFamilyPropertiesESaIS1_EEC1Ev>:
  404b96:	55                   	push   %rbp
  404b97:	48 89 e5             	mov    %rsp,%rbp
  404b9a:	48 83 ec 10          	sub    $0x10,%rsp
  404b9e:	48 89 7d f8          	mov    %rdi,-0x8(%rbp)
  404ba2:	48 8b 45 f8          	mov    -0x8(%rbp),%rax
  404ba6:	48 89 c7             	mov    %rax,%rdi
  404ba9:	e8 dc 0f 00 00       	callq  405b8a <_ZNSt12_Vector_baseIN2vk21QueueFamilyPropertiesESaIS1_EEC1Ev>
  404bae:	90                   	nop
  404baf:	c9                   	leaveq 
  404bb0:	c3                   	retq   
  404bb1:	90                   	nop

0000000000404bb2 <_ZNSt6vectorIN2vk21QueueFamilyPropertiesESaIS1_EE6resizeEm>:
  404bb2:	55                   	push   %rbp
  404bb3:	48 89 e5             	mov    %rsp,%rbp
  404bb6:	48 83 ec 10          	sub    $0x10,%rsp
  404bba:	48 89 7d f8          	mov    %rdi,-0x8(%rbp)
  404bbe:	48 89 75 f0          	mov    %rsi,-0x10(%rbp)
  404bc2:	48 8b 45 f8          	mov    -0x8(%rbp),%rax
  404bc6:	48 89 c7             	mov    %rax,%rdi
  404bc9:	e8 84 f6 ff ff       	callq  404252 <_ZNKSt6vectorIN2vk21QueueFamilyPropertiesESaIS1_EE4sizeEv>
  404bce:	48 3b 45 f0          	cmp    -0x10(%rbp),%rax
  404bd2:	0f 92 c0             	setb   %al
  404bd5:	84 c0                	test   %al,%al
  404bd7:	74 2a                	je     404c03 <_ZNSt6vectorIN2vk21QueueFamilyPropertiesESaIS1_EE6resizeEm+0x51>
  404bd9:	48 8b 45 f8          	mov    -0x8(%rbp),%rax
  404bdd:	48 89 c7             	mov    %rax,%rdi
  404be0:	e8 6d f6 ff ff       	callq  404252 <_ZNKSt6vectorIN2vk21QueueFamilyPropertiesESaIS1_EE4sizeEv>
  404be5:	48 89 c2             	mov    %rax,%rdx
  404be8:	48 8b 45 f0          	mov    -0x10(%rbp),%rax
  404bec:	48 29 d0             	sub    %rdx,%rax
  404bef:	48 89 c2             	mov    %rax,%rdx
  404bf2:	48 8b 45 f8          	mov    -0x8(%rbp),%rax
  404bf6:	48 89 d6             	mov    %rdx,%rsi
  404bf9:	48 89 c7             	mov    %rax,%rdi
  404bfc:	e8 a5 0f 00 00       	callq  405ba6 <_ZNSt6vectorIN2vk21QueueFamilyPropertiesESaIS1_EE17_M_default_appendEm>
  404c01:	eb 42                	jmp    404c45 <_ZNSt6vectorIN2vk21QueueFamilyPropertiesESaIS1_EE6resizeEm+0x93>
  404c03:	48 8b 45 f8          	mov    -0x8(%rbp),%rax
  404c07:	48 89 c7             	mov    %rax,%rdi
  404c0a:	e8 43 f6 ff ff       	callq  404252 <_ZNKSt6vectorIN2vk21QueueFamilyPropertiesESaIS1_EE4sizeEv>
  404c0f:	48 3b 45 f0          	cmp    -0x10(%rbp),%rax
  404c13:	0f 97 c0             	seta   %al
  404c16:	84 c0                	test   %al,%al
  404c18:	74 2b                	je     404c45 <_ZNSt6vectorIN2vk21QueueFamilyPropertiesESaIS1_EE6resizeEm+0x93>
  404c1a:	48 8b 45 f8          	mov    -0x8(%rbp),%rax
  404c1e:	48 8b 08             	mov    (%rax),%rcx
  404c21:	48 8b 55 f0          	mov    -0x10(%rbp),%rdx
  404c25:	48 89 d0             	mov    %rdx,%rax
  404c28:	48 01 c0             	add    %rax,%rax
  404c2b:	48 01 d0             	add    %rdx,%rax
  404c2e:	48 c1 e0 03          	shl    $0x3,%rax
  404c32:	48 8d 14 01          	lea    (%rcx,%rax,1),%rdx
  404c36:	48 8b 45 f8          	mov    -0x8(%rbp),%rax
  404c3a:	48 89 d6             	mov    %rdx,%rsi
  404c3d:	48 89 c7             	mov    %rax,%rdi
  404c40:	e8 93 11 00 00       	callq  405dd8 <_ZNSt6vectorIN2vk21QueueFamilyPropertiesESaIS1_EE15_M_erase_at_endEPS1_>
  404c45:	90                   	nop
  404c46:	c9                   	leaveq 
  404c47:	c3                   	retq   

0000000000404c48 <_ZNSt6vectorIN2vk21QueueFamilyPropertiesESaIS1_EE4dataEv>:
  404c48:	55                   	push   %rbp
  404c49:	48 89 e5             	mov    %rsp,%rbp
  404c4c:	48 83 ec 10          	sub    $0x10,%rsp
  404c50:	48 89 7d f8          	mov    %rdi,-0x8(%rbp)
  404c54:	48 8b 45 f8          	mov    -0x8(%rbp),%rax
  404c58:	48 8b 10             	mov    (%rax),%rdx
  404c5b:	48 8b 45 f8          	mov    -0x8(%rbp),%rax
  404c5f:	48 89 d6             	mov    %rdx,%rsi
  404c62:	48 89 c7             	mov    %rax,%rdi
  404c65:	e8 b4 11 00 00       	callq  405e1e <_ZNKSt6vectorIN2vk21QueueFamilyPropertiesESaIS1_EE11_M_data_ptrIS1_EEPT_S6_>
  404c6a:	c9                   	leaveq 
  404c6b:	c3                   	retq   

0000000000404c6c <_ZNSt12_Vector_baseIN2vk21QueueFamilyPropertiesESaIS1_EE12_Vector_implD1Ev>:
  404c6c:	55                   	push   %rbp
  404c6d:	48 89 e5             	mov    %rsp,%rbp
  404c70:	48 83 ec 10          	sub    $0x10,%rsp
  404c74:	48 89 7d f8          	mov    %rdi,-0x8(%rbp)
  404c78:	48 8b 45 f8          	mov    -0x8(%rbp),%rax
  404c7c:	48 89 c7             	mov    %rax,%rdi
  404c7f:	e8 ac 11 00 00       	callq  405e30 <_ZNSaIN2vk21QueueFamilyPropertiesEED1Ev>
  404c84:	90                   	nop
  404c85:	c9                   	leaveq 
  404c86:	c3                   	retq   
  404c87:	90                   	nop

0000000000404c88 <_ZNSt12_Vector_baseIN2vk21QueueFamilyPropertiesESaIS1_EED1Ev>:
  404c88:	55                   	push   %rbp
  404c89:	48 89 e5             	mov    %rsp,%rbp
  404c8c:	48 83 ec 10          	sub    $0x10,%rsp
  404c90:	48 89 7d f8          	mov    %rdi,-0x8(%rbp)
  404c94:	48 8b 45 f8          	mov    -0x8(%rbp),%rax
  404c98:	48 8b 40 10          	mov    0x10(%rax),%rax
  404c9c:	48 89 c2             	mov    %rax,%rdx
  404c9f:	48 8b 45 f8          	mov    -0x8(%rbp),%rax
  404ca3:	48 8b 00             	mov    (%rax),%rax
  404ca6:	48 29 c2             	sub    %rax,%rdx
  404ca9:	48 89 d0             	mov    %rdx,%rax
  404cac:	48 c1 f8 03          	sar    $0x3,%rax
  404cb0:	48 89 c2             	mov    %rax,%rdx
  404cb3:	48 b8 ab aa aa aa aa 	movabs $0xaaaaaaaaaaaaaaab,%rax
  404cba:	aa aa aa 
  404cbd:	48 0f af c2          	imul   %rdx,%rax
  404cc1:	48 89 c2             	mov    %rax,%rdx
  404cc4:	48 8b 45 f8          	mov    -0x8(%rbp),%rax
  404cc8:	48 8b 08             	mov    (%rax),%rcx
  404ccb:	48 8b 45 f8          	mov    -0x8(%rbp),%rax
